(lp1
(itransac
Transaction
p2
(dp3
S'date'
p4
I915145200
sS'comment'
p5
S'Initial investment'
p6
sS'lines'
p7
(lp8
(S'MyCo.Assets.NCA.CurAss.Cash'
p9
I10000
Ntp10
a(S'MyCo.Capital.Shares'
p11
I-10000
Ntp12
asba(itransac
Transaction
p13
(dp14
g4
I915145200
sg5
S'Monthly Rent Accrual'
p15
sg7
(lp16
(S'MyCo.Capital.PL.Expenses.Rent'
I1500
Ntp17
a(S'MyCo.Assets.NCA.CurAss.Prepayments'
p18
I-1500
Ntp19
asba(itransac
Transaction
p20
(dp21
g4
I915145200
sg5
S'Rent paid quarterly in advance'
p22
sg7
(lp23
(g18
I4500
Ntp24
a(g9
I-4500
Ntp25
asba(itransac
Transaction
p26
(dp27
g4
I915145200
sg5
S'Phone bills'
p28
sg7
(lp29
(S'MyCo.Capital.PL.Expenses.Communications'
p30
F318
Ntp31
a(S'MyCo.Assets.NCA.CurLia.VATdue'
p32
F55.649999999999999
Ntp33
a(g9
F-373.65000000000003
Ntp34
asba(itransac
Transaction
p35
(dp36
g4
I915145200
sg5
S'General office costs'
p37
sg7
(lp38
(S'MyCo.Capital.PL.Expenses.Office'
p39
F400
Ntp40
a(g32
F70
Ntp41
a(g9
F-470
Ntp42
asba(itransac
Transaction
p43
(dp44
g4
I915231600
sg5
S'Random Expense'
p45
sg7
(lp46
(S'MyCo.Capital.PL.Expenses.Stationery'
I9
Ntp47
a(g9
I-9
Ntp48
asba(itransac
Transaction
p49
(dp50
g4
I915318000
sg5
g45
sg7
(lp51
(S'MyCo.Capital.PL.Expenses.Travel'
I43
Ntp52
a(g9
I-43
Ntp53
asba(itransac
Transaction
p54
(dp55
g4
I915404400
sg5
g45
sg7
(lp56
(S'MyCo.Capital.PL.Expenses.Travel'
I73
Ntp57
a(g9
I-73
Ntp58
asba(itransac
Transaction
p59
(dp60
g4
I915490800
sg5
g45
sg7
(lp61
(S'MyCo.Capital.PL.Expenses.Utilities'
I96
Ntp62
a(g9
I-96
Ntp63
asba(itransac
Transaction
p64
(dp65
g4
I915750000
sg5
g45
sg7
(lp66
(S'MyCo.Capital.PL.Expenses.Travel'
I40
Ntp67
a(g9
I-40
Ntp68
asba(itransac
Transaction
p69
(dp70
g4
I915836400
sg5
g45
sg7
(lp71
(S'MyCo.Capital.PL.Expenses.Stationery'
I27
Ntp72
a(g9
I-27
Ntp73
asba(itransac
Transaction
p74
(dp75
g4
I915836400
sg5
g45
sg7
(lp76
(S'MyCo.Capital.PL.Expenses.Stationery'
I56
Ntp77
a(g9
I-56
Ntp78
asba(itransac
Transaction
p79
(dp80
g4
I915836400
sg5
g45
sg7
(lp81
(S'MyCo.Capital.PL.Expenses.Travel'
I3
Ntp82
a(g9
I-3
Ntp83
asba(itransac
Transaction
p84
(dp85
g4
I915922800
sg5
g45
sg7
(lp86
(S'MyCo.Capital.PL.Expenses.Rent'
I53
Ntp87
a(g9
I-53
Ntp88
asba(itransac
Transaction
p89
(dp90
g4
I916095600
sg5
g45
sg7
(lp91
(S'MyCo.Capital.PL.Expenses.Stationery'
I77
Ntp92
a(g9
I-77
Ntp93
asba(itransac
Transaction
p94
(dp95
g4
I916182000
sg5
g45
sg7
(lp96
(S'MyCo.Capital.PL.Expenses.Travel'
I99
Ntp97
a(g9
I-99
Ntp98
asba(itransac
Transaction
p99
(dp100
g4
I916182000
sg5
g45
sg7
(lp101
(S'MyCo.Capital.PL.Expenses.Labour'
I39
Ntp102
a(g9
I-39
Ntp103
asba(itransac
Transaction
p104
(dp105
g4
I916182000
sg5
g45
sg7
(lp106
(S'MyCo.Capital.PL.Expenses.Stationery'
I81
Ntp107
a(g9
I-81
Ntp108
asba(itransac
Transaction
p109
(dp110
g4
I916268400
sg5
g45
sg7
(lp111
(S'MyCo.Capital.PL.Expenses.Rent'
I66
Ntp112
a(g9
I-66
Ntp113
asba(itransac
Transaction
p114
(dp115
g4
I916354800
sg5
g45
sg7
(lp116
(S'MyCo.Capital.PL.Expenses.Rent'
I21
Ntp117
a(g9
I-21
Ntp118
asba(itransac
Transaction
p119
(dp120
g4
I916441200
sg5
g45
sg7
(lp121
(S'MyCo.Capital.PL.Expenses.Travel'
I19
Ntp122
a(g9
I-19
Ntp123
asba(itransac
Transaction
p124
(dp125
g4
I916527600
sg5
g45
sg7
(lp126
(S'MyCo.Capital.PL.Expenses.Rent'
I4
Ntp127
a(g9
I-4
Ntp128
asba(itransac
Transaction
p129
(dp130
g4
I916614000
sg5
S'Computer Hardware./Software Investment'
p131
sg7
(lp132
(S'MyCo.Assets.Fixed.Computers.OriginalCost'
p133
F8000
Ntp134
a(g32
F1400
Ntp135
a(S'MyCo.Assets.NCA.CurLia.Creditors'
p136
F-9400
Ntp137
asba(itransac
Transaction
p138
(dp139
g4
I916700400
sg5
g45
sg7
(lp140
(S'MyCo.Capital.PL.Expenses.Labour'
I76
Ntp141
a(g9
I-76
Ntp142
asba(itransac
Transaction
p143
(dp144
g4
I916786800
sg5
g45
sg7
(lp145
(S'MyCo.Capital.PL.Expenses.Stationery'
I22
Ntp146
a(g9
I-22
Ntp147
asba(itransac
Transaction
p148
(dp149
g4
I916959600
sg5
g45
sg7
(lp150
(S'MyCo.Capital.PL.Expenses.Stationery'
I38
Ntp151
a(g9
I-38
Ntp152
asba(itransac
Transaction
p153
(dp154
g4
I916959600
sg5
g45
sg7
(lp155
(S'MyCo.Capital.PL.Expenses.Rent'
I54
Ntp156
a(g9
I-54
Ntp157
asba(itransac
Transaction
p158
(dp159
g4
I917218800
sg5
S'Salary for Roger'
p160
sg7
(lp161
(S'MyCo.Capital.PL.Expenses.Wages'
I3000
Ntp162
a(g9
I-3000
Ntp163
asba(itransac
Transaction
p164
(dp165
g4
I917305200
sg5
g45
sg7
(lp166
(S'MyCo.Capital.PL.Expenses.Travel'
I80
Ntp167
a(g9
I-80
Ntp168
asba(itransac
Transaction
p169
(dp170
g4
I917305200
sg5
g45
sg7
(lp171
(S'MyCo.Capital.PL.Expenses.Travel'
I49
Ntp172
a(g9
I-49
Ntp173
asba(itransac
Transaction
p174
(dp175
g4
I917391600
sg5
g45
sg7
(lp176
(S'MyCo.Capital.PL.Expenses.Utilities'
I35
Ntp177
a(g9
I-35
Ntp178
asba(itransac
Transaction
p179
(dp180
g4
I917564400
sg5
g45
sg7
(lp181
(S'MyCo.Capital.PL.Expenses.Labour'
I37
Ntp182
a(g9
I-37
Ntp183
asba(itransac
Transaction
p184
(dp185
g4
I917650800
sg5
g45
sg7
(lp186
(S'MyCo.Capital.PL.Expenses.Rent'
I6
Ntp187
a(g9
I-6
Ntp188
asba(itransac
Transaction
p189
(dp190
g4
I917650800
sg5
g45
sg7
(lp191
(S'MyCo.Capital.PL.Expenses.Utilities'
I68
Ntp192
a(g9
I-68
Ntp193
asba(itransac
Transaction
p194
(dp195
g4
I917737200
sg5
S'Cash Sale - Product Sales for month'
p196
sg7
(lp197
(S'MyCo.Capital.PL.Income.Software'
I0
Ntp198
a(g32
F-0
Ntp199
a(g9
F0
Ntp200
asba(itransac
Transaction
p201
(dp202
g4
I917737200
sg5
g45
sg7
(lp203
(S'MyCo.Capital.PL.Expenses.Rent'
I23
Ntp204
a(g9
I-23
Ntp205
asba(itransac
Transaction
p206
(dp207
g4
I917737200
sg5
g45
sg7
(lp208
(S'MyCo.Capital.PL.Expenses.Labour'
I54
Ntp209
a(g9
I-54
Ntp210
asba(itransac
Transaction
p211
(dp212
g4
I917820000
sg5
g15
sg7
(lp213
(S'MyCo.Capital.PL.Expenses.Rent'
I1500
Ntp214
a(g18
I-1500
Ntp215
asba(itransac
Transaction
p216
(dp217
g4
I917820000
sg5
g28
sg7
(lp218
(g30
F311
Ntp219
a(g32
F54.424999999999997
Ntp220
a(g9
F-365.42500000000001
Ntp221
asba(itransac
Transaction
p222
(dp223
g4
I917820000
sg5
g37
sg7
(lp224
(g39
F800
Ntp225
a(g32
F140
Ntp226
a(g9
F-940
Ntp227
asba(itransac
Transaction
p228
(dp229
g4
I917823600
sg5
S'Loan drawdown'
p230
sg7
(lp231
(S'MyCo.Assets.OtherLia.BankLoan'
p232
I-10000
Ntp233
a(g9
I10000
Ntp234
asba(itransac
Transaction
p235
(dp236
g4
I917910000
sg5
g45
sg7
(lp237
(S'MyCo.Capital.PL.Expenses.Stationery'
I64
Ntp238
a(g9
I-64
Ntp239
asba(itransac
Transaction
p240
(dp241
g4
I918082800
sg5
g45
sg7
(lp242
(S'MyCo.Capital.PL.Expenses.Stationery'
I25
Ntp243
a(g9
I-25
Ntp244
asba(itransac
Transaction
p245
(dp246
g4
I918169200
sg5
g45
sg7
(lp247
(S'MyCo.Capital.PL.Expenses.Travel'
I83
Ntp248
a(g9
I-83
Ntp249
asba(itransac
Transaction
p250
(dp251
g4
I918252000
sg5
S'Bill raised - Consulting to 30-Jan-1999 23: 0: 0'
p252
sg7
(lp253
(S'MyCo.Capital.PL.Income.Consulting'
I-4000
Ntp254
a(g32
F-700
Ntp255
a(S'MyCo.Assets.NCA.CurAss.Debtors'
p256
F4700
Ntp257
asba(itransac
Transaction
p258
(dp259
g4
I918255600
sg5
g45
sg7
(lp260
(S'MyCo.Capital.PL.Expenses.Labour'
I35
Ntp261
a(g9
I-35
Ntp262
asba(itransac
Transaction
p263
(dp264
g4
I918255600
sg5
g45
sg7
(lp265
(S'MyCo.Capital.PL.Expenses.Rent'
I64
Ntp266
a(g9
I-64
Ntp267
asba(itransac
Transaction
p268
(dp269
g4
I918342000
sg5
g45
sg7
(lp270
(S'MyCo.Capital.PL.Expenses.Stationery'
I77
Ntp271
a(g9
I-77
Ntp272
asba(itransac
Transaction
p273
(dp274
g4
I918428400
sg5
g45
sg7
(lp275
(S'MyCo.Capital.PL.Expenses.Utilities'
I49
Ntp276
a(g9
I-49
Ntp277
asba(itransac
Transaction
p278
(dp279
g4
I918514800
sg5
g45
sg7
(lp280
(S'MyCo.Capital.PL.Expenses.Stationery'
I22
Ntp281
a(g9
I-22
Ntp282
asba(itransac
Transaction
p283
(dp284
g4
I918601200
sg5
S'Bill received - Contractor'
p285
sg7
(lp286
(S'MyCo.Capital.PL.Expenses.Contractors'
I1500
Ntp287
a(g32
F262.5
Ntp288
a(g136
F-1762.5
Ntp289
asba(itransac
Transaction
p290
(dp291
g4
I918774000
sg5
g45
sg7
(lp292
(S'MyCo.Capital.PL.Expenses.Stationery'
I93
Ntp293
a(g9
I-93
Ntp294
asba(itransac
Transaction
p295
(dp296
g4
I918946800
sg5
g45
sg7
(lp297
(S'MyCo.Capital.PL.Expenses.Rent'
I74
Ntp298
a(g9
I-74
Ntp299
asba(itransac
Transaction
p300
(dp301
g4
I919206000
sg5
S'Computer Hardware./Software Payment'
p302
sg7
(lp303
(g9
F-9400
Ntp304
a(g136
F9400
Ntp305
asba(itransac
Transaction
p306
(dp307
g4
I919206000
sg5
S'Bill received - Contractor'
p308
sg7
(lp309
(S'MyCo.Capital.PL.Expenses.Contractors'
I1500
Ntp310
a(g32
F262.5
Ntp311
a(g136
F-1762.5
Ntp312
asba(itransac
Transaction
p313
(dp314
g4
I919206000
sg5
g45
sg7
(lp315
(S'MyCo.Capital.PL.Expenses.Labour'
I90
Ntp316
a(g9
I-90
Ntp317
asba(itransac
Transaction
p318
(dp319
g4
I919206000
sg5
g45
sg7
(lp320
(S'MyCo.Capital.PL.Expenses.Utilities'
I86
Ntp321
a(g9
I-86
Ntp322
asba(itransac
Transaction
p323
(dp324
g4
I919288800
sg5
g131
sg7
(lp325
(g133
F6000
Ntp326
a(g32
F1050
Ntp327
a(g136
F-7050
Ntp328
asba(itransac
Transaction
p329
(dp330
g4
I919378800
sg5
g45
sg7
(lp331
(S'MyCo.Capital.PL.Expenses.Rent'
I7
Ntp332
a(g9
I-7
Ntp333
asba(itransac
Transaction
p334
(dp335
g4
I919378800
sg5
g45
sg7
(lp336
(S'MyCo.Capital.PL.Expenses.Travel'
I29
Ntp337
a(g9
I-29
Ntp338
asba(itransac
Transaction
p339
(dp340
g4
I919378800
sg5
g45
sg7
(lp341
(S'MyCo.Capital.PL.Expenses.Travel'
I61
Ntp342
a(g9
I-61
Ntp343
asba(itransac
Transaction
p344
(dp345
g4
I919465200
sg5
S'Bill paid - Contractor'
p346
sg7
(lp347
(g136
F1762.5
Ntp348
a(g9
F-1762.5
Ntp349
asba(itransac
Transaction
p350
(dp351
g4
I919465200
sg5
g45
sg7
(lp352
(S'MyCo.Capital.PL.Expenses.Rent'
I21
Ntp353
a(g9
I-21
Ntp354
asba(itransac
Transaction
p355
(dp356
g4
I919465200
sg5
g45
sg7
(lp357
(S'MyCo.Capital.PL.Expenses.Rent'
I39
Ntp358
a(g9
I-39
Ntp359
asba(itransac
Transaction
p360
(dp361
g4
I919638000
sg5
g45
sg7
(lp362
(S'MyCo.Capital.PL.Expenses.Utilities'
I7
Ntp363
a(g9
I-7
Ntp364
asba(itransac
Transaction
p365
(dp366
g4
I919724400
sg5
g45
sg7
(lp367
(S'MyCo.Capital.PL.Expenses.Utilities'
I3
Ntp368
a(g9
I-3
Ntp369
asba(itransac
Transaction
p370
(dp371
g4
I919810800
sg5
S'Bill received - Contractor'
p372
sg7
(lp373
(S'MyCo.Capital.PL.Expenses.Contractors'
I1500
Ntp374
a(g32
F262.5
Ntp375
a(g136
F-1762.5
Ntp376
asba(itransac
Transaction
p377
(dp378
g4
I919810800
sg5
g45
sg7
(lp379
(S'MyCo.Capital.PL.Expenses.Labour'
I30
Ntp380
a(g9
I-30
Ntp381
asba(itransac
Transaction
p382
(dp383
g4
I919893600
sg5
S'Salary for Roger'
p384
sg7
(lp385
(S'MyCo.Capital.PL.Expenses.Wages'
I3000
Ntp386
a(g9
I-3000
Ntp387
asba(itransac
Transaction
p388
(dp389
g4
I919897200
sg5
S'Salary for Simon'
p390
sg7
(lp391
(S'MyCo.Capital.PL.Expenses.Wages'
I2000
Ntp392
a(g9
I-2000
Ntp393
asba(itransac
Transaction
p394
(dp395
g4
I919897200
sg5
S'Salary for Tim'
p396
sg7
(lp397
(S'MyCo.Capital.PL.Expenses.Wages'
I1500
Ntp398
a(g9
I-1500
Ntp399
asba(itransac
Transaction
p400
(dp401
g4
I920070000
sg5
S'Bill paid - Contractor'
p402
sg7
(lp403
(g136
F1762.5
Ntp404
a(g9
F-1762.5
Ntp405
asba(itransac
Transaction
p406
(dp407
g4
I920242800
sg5
g45
sg7
(lp408
(S'MyCo.Capital.PL.Expenses.Travel'
I82
Ntp409
a(g9
I-82
Ntp410
asba(itransac
Transaction
p411
(dp412
g4
I920412000
sg5
S'Cash Sale - Product Sales for month'
p413
sg7
(lp414
(S'MyCo.Capital.PL.Income.Software'
I0
Ntp415
a(g32
F-0
Ntp416
a(g9
F0
Ntp417
asba(itransac
Transaction
p418
(dp419
g4
I920415600
sg5
S'Bill received - Contractor'
p420
sg7
(lp421
(S'MyCo.Capital.PL.Expenses.Contractors'
I1500
Ntp422
a(g32
F262.5
Ntp423
a(g136
F-1762.5
Ntp424
asba(itransac
Transaction
p425
(dp426
g4
I920494800
sg5
g15
sg7
(lp427
(S'MyCo.Capital.PL.Expenses.Rent'
I1500
Ntp428
a(g18
I-1500
Ntp429
asba(itransac
Transaction
p430
(dp431
g4
I920494800
sg5
g28
sg7
(lp432
(g30
F362
Ntp433
a(g32
F63.349999999999994
Ntp434
a(g9
F-425.35000000000002
Ntp435
asba(itransac
Transaction
p436
(dp437
g4
I920494800
sg5
g37
sg7
(lp438
(g39
F800
Ntp439
a(g32
F140
Ntp440
a(g9
F-940
Ntp441
asba(itransac
Transaction
p442
(dp443
g4
I920498400
sg5
S'Loan repayment'
p444
sg7
(lp445
(g9
F-461.44999999999999
Ntp446
a(g232
F378.12
Ntp447
a(S'MyCo.Capital.PL.Expenses.Interest'
p448
F83.329999999999998
Ntp449
asba(itransac
Transaction
p450
(dp451
g4
I920674800
sg5
S'Bill paid - Contractor'
p452
sg7
(lp453
(g136
F1762.5
Ntp454
a(g9
F-1762.5
Ntp455
asba(itransac
Transaction
p456
(dp457
g4
I920674800
sg5
g45
sg7
(lp458
(S'MyCo.Capital.PL.Expenses.Travel'
I24
Ntp459
a(g9
I-24
Ntp460
asba(itransac
Transaction
p461
(dp462
g4
I920847600
sg5
g45
sg7
(lp463
(S'MyCo.Capital.PL.Expenses.Rent'
I72
Ntp464
a(g9
I-72
Ntp465
asba(itransac
Transaction
p466
(dp467
g4
I920926800
sg5
S'Bill raised - Consulting to 2-Mar-1999 22: 0: 0'
p468
sg7
(lp469
(S'MyCo.Capital.PL.Income.Consulting'
I-10400
Ntp470
a(g32
F-1819.9999999999998
Ntp471
a(g256
F12220
Ntp472
asba(itransac
Transaction
p473
(dp474
g4
I921020400
sg5
S'Bill received - Contractor'
p475
sg7
(lp476
(S'MyCo.Capital.PL.Expenses.Contractors'
I1500
Ntp477
a(g32
F262.5
Ntp478
a(g136
F-1762.5
Ntp479
asba(itransac
Transaction
p480
(dp481
g4
I921020400
sg5
g45
sg7
(lp482
(S'MyCo.Capital.PL.Expenses.Labour'
I6
Ntp483
a(g9
I-6
Ntp484
asba(itransac
Transaction
p485
(dp486
g4
I921193200
sg5
g45
sg7
(lp487
(S'MyCo.Capital.PL.Expenses.Labour'
I14
Ntp488
a(g9
I-14
Ntp489
asba(itransac
Transaction
p490
(dp491
g4
I921276000
sg5
S'Payment received - Consulting to 30-Jan-1999 23: 0: 0'
p492
sg7
(lp493
(g256
F-4700
Ntp494
a(g9
F4700
Ntp495
asba(itransac
Transaction
p496
(dp497
g4
I921279600
sg5
S'Bill paid - Contractor'
p498
sg7
(lp499
(g136
F1762.5
Ntp500
a(g9
F-1762.5
Ntp501
asba(itransac
Transaction
p502
(dp503
g4
I921366000
sg5
g45
sg7
(lp504
(S'MyCo.Capital.PL.Expenses.Rent'
I36
Ntp505
a(g9
I-36
Ntp506
asba(itransac
Transaction
p507
(dp508
g4
I921366000
sg5
g45
sg7
(lp509
(S'MyCo.Capital.PL.Expenses.Travel'
I98
Ntp510
a(g9
I-98
Ntp511
asba(itransac
Transaction
p512
(dp513
g4
I921366000
sg5
g45
sg7
(lp514
(S'MyCo.Capital.PL.Expenses.Labour'
I64
Ntp515
a(g9
I-64
Ntp516
asba(itransac
Transaction
p517
(dp518
g4
I921538800
sg5
g45
sg7
(lp519
(S'MyCo.Capital.PL.Expenses.Travel'
I71
Ntp520
a(g9
I-71
Ntp521
asba(itransac
Transaction
p522
(dp523
g4
I921538800
sg5
g45
sg7
(lp524
(S'MyCo.Capital.PL.Expenses.Travel'
I76
Ntp525
a(g9
I-76
Ntp526
asba(itransac
Transaction
p527
(dp528
g4
I921538800
sg5
g45
sg7
(lp529
(S'MyCo.Capital.PL.Expenses.Rent'
I27
Ntp530
a(g9
I-27
Ntp531
asba(itransac
Transaction
p532
(dp533
g4
I921621600
sg5
g302
sg7
(lp534
(g9
F-7050
Ntp535
a(g136
F7050
Ntp536
asba(itransac
Transaction
p537
(dp538
g4
I921625200
sg5
S'Bill received - Contractor'
p539
sg7
(lp540
(S'MyCo.Capital.PL.Expenses.Contractors'
I1500
Ntp541
a(g32
F262.5
Ntp542
a(g136
F-1762.5
Ntp543
asba(itransac
Transaction
p544
(dp545
g4
I921704400
sg5
g131
sg7
(lp546
(g133
F3000
Ntp547
a(g32
F525
Ntp548
a(g136
F-3525
Ntp549
asba(itransac
Transaction
p550
(dp551
g4
I921798000
sg5
g45
sg7
(lp552
(S'MyCo.Capital.PL.Expenses.Utilities'
I73
Ntp553
a(g9
I-73
Ntp554
asba(itransac
Transaction
p555
(dp556
g4
I921884400
sg5
S'Bill paid - Contractor'
p557
sg7
(lp558
(g136
F1762.5
Ntp559
a(g9
F-1762.5
Ntp560
asba(itransac
Transaction
p561
(dp562
g4
I921884400
sg5
g45
sg7
(lp563
(S'MyCo.Capital.PL.Expenses.Labour'
I61
Ntp564
a(g9
I-61
Ntp565
asba(itransac
Transaction
p566
(dp567
g4
I921884400
sg5
g45
sg7
(lp568
(S'MyCo.Capital.PL.Expenses.Utilities'
I19
Ntp569
a(g9
I-19
Ntp570
asba(itransac
Transaction
p571
(dp572
g4
I921970800
sg5
g45
sg7
(lp573
(S'MyCo.Capital.PL.Expenses.Stationery'
I59
Ntp574
a(g9
I-59
Ntp575
asba(itransac
Transaction
p576
(dp577
g4
I921970800
sg5
g45
sg7
(lp578
(S'MyCo.Capital.PL.Expenses.Stationery'
I50
Ntp579
a(g9
I-50
Ntp580
asba(itransac
Transaction
p581
(dp582
g4
I922230000
sg5
S'Bill received - Contractor'
p583
sg7
(lp584
(S'MyCo.Capital.PL.Expenses.Contractors'
I1500
Ntp585
a(g32
F262.5
Ntp586
a(g136
F-1762.5
Ntp587
asba(itransac
Transaction
p588
(dp589
g4
I922309200
sg5
S'Salary for Roger'
p590
sg7
(lp591
(S'MyCo.Capital.PL.Expenses.Wages'
I3000
Ntp592
a(g9
I-3000
Ntp593
asba(itransac
Transaction
p594
(dp595
g4
I922312800
sg5
S'Salary for Simon'
p596
sg7
(lp597
(S'MyCo.Capital.PL.Expenses.Wages'
I2000
Ntp598
a(g9
I-2000
Ntp599
asba(itransac
Transaction
p600
(dp601
g4
I922312800
sg5
S'Salary for Tim'
p602
sg7
(lp603
(S'MyCo.Capital.PL.Expenses.Wages'
I1500
Ntp604
a(g9
I-1500
Ntp605
asba(itransac
Transaction
p606
(dp607
g4
I922489200
sg5
S'Bill paid - Contractor'
p608
sg7
(lp609
(g136
F1762.5
Ntp610
a(g9
F-1762.5
Ntp611
asba(itransac
Transaction
p612
(dp613
g4
I922575600
sg5
g45
sg7
(lp614
(S'MyCo.Capital.PL.Expenses.Travel'
I43
Ntp615
a(g9
I-43
Ntp616
asba(itransac
Transaction
p617
(dp618
g4
I922748400
sg5
g45
sg7
(lp619
(S'MyCo.Capital.PL.Expenses.Utilities'
I7
Ntp620
a(g9
I-7
Ntp621
asba(itransac
Transaction
p622
(dp623
g4
I922748400
sg5
g45
sg7
(lp624
(S'MyCo.Capital.PL.Expenses.Stationery'
I86
Ntp625
a(g9
I-86
Ntp626
asba(itransac
Transaction
p627
(dp628
g4
I922834800
sg5
S'Bill received - Contractor'
p629
sg7
(lp630
(S'MyCo.Capital.PL.Expenses.Contractors'
I1500
Ntp631
a(g32
F262.5
Ntp632
a(g136
F-1762.5
Ntp633
asba(itransac
Transaction
p634
(dp635
g4
I922834800
sg5
g45
sg7
(lp636
(S'MyCo.Capital.PL.Expenses.Rent'
I24
Ntp637
a(g9
I-24
Ntp638
asba(itransac
Transaction
p639
(dp640
g4
I922917600
sg5
g22
sg7
(lp641
(g18
I4500
Ntp642
a(g9
I-4500
Ntp643
asba(itransac
Transaction
p644
(dp645
g4
I922921200
sg5
g45
sg7
(lp646
(S'MyCo.Capital.PL.Expenses.Labour'
I28
Ntp647
a(g9
I-28
Ntp648
asba(itransac
Transaction
p649
(dp650
g4
I922921200
sg5
g45
sg7
(lp651
(S'MyCo.Capital.PL.Expenses.Travel'
I45
Ntp652
a(g9
I-45
Ntp653
asba(itransac
Transaction
p654
(dp655
g4
I923007600
sg5
g45
sg7
(lp656
(S'MyCo.Capital.PL.Expenses.Rent'
I71
Ntp657
a(g9
I-71
Ntp658
asba(itransac
Transaction
p659
(dp660
g4
I923007600
sg5
g45
sg7
(lp661
(S'MyCo.Capital.PL.Expenses.Rent'
I6
Ntp662
a(g9
I-6
Ntp663
asba(itransac
Transaction
p664
(dp665
g4
I923086800
sg5
S'Cash Sale - Product Sales for month'
p666
sg7
(lp667
(S'MyCo.Capital.PL.Income.Software'
I0
Ntp668
a(g32
F-0
Ntp669
a(g9
F0
Ntp670
asba(itransac
Transaction
p671
(dp672
g4
I923094000
sg5
S'Bill paid - Contractor'
p673
sg7
(lp674
(g136
F1762.5
Ntp675
a(g9
F-1762.5
Ntp676
asba(itransac
Transaction
p677
(dp678
g4
I923169600
sg5
g15
sg7
(lp679
(S'MyCo.Capital.PL.Expenses.Rent'
I1500
Ntp680
a(g18
I-1500
Ntp681
asba(itransac
Transaction
p682
(dp683
g4
I923169600
sg5
g28
sg7
(lp684
(g30
F411
Ntp685
a(g32
F71.924999999999997
Ntp686
a(g9
F-482.92500000000001
Ntp687
asba(itransac
Transaction
p688
(dp689
g4
I923169600
sg5
g37
sg7
(lp690
(g39
F1000
Ntp691
a(g32
F175
Ntp692
a(g9
F-1175
Ntp693
asba(itransac
Transaction
p694
(dp695
g4
I923173200
sg5
g444
sg7
(lp696
(g9
F-461.44999999999999
Ntp697
a(g232
F381.26999999999998
Ntp698
a(g448
F80.180000000000007
Ntp699
asba(itransac
Transaction
p700
(dp701
g4
I923353200
sg5
g45
sg7
(lp702
(S'MyCo.Capital.PL.Expenses.Utilities'
I7
Ntp703
a(g9
I-7
Ntp704
asba(itransac
Transaction
p705
(dp706
g4
I923439600
sg5
S'Bill received - Contractor'
p707
sg7
(lp708
(S'MyCo.Capital.PL.Expenses.Contractors'
I1500
Ntp709
a(g32
F262.5
Ntp710
a(g136
F-1762.5
Ntp711
asba(itransac
Transaction
p712
(dp713
g4
I923439600
sg5
g45
sg7
(lp714
(S'MyCo.Capital.PL.Expenses.Utilities'
I54
Ntp715
a(g9
I-54
Ntp716
asba(itransac
Transaction
p717
(dp718
g4
I923601600
sg5
S'Bill raised - Consulting to 2-Apr-1999 21: 0: 0'
p719
sg7
(lp720
(S'MyCo.Capital.PL.Income.Consulting'
I-11200
Ntp721
a(g32
F-1959.9999999999998
Ntp722
a(g256
F13160
Ntp723
asba(itransac
Transaction
p724
(dp725
g4
I923612400
sg5
g45
sg7
(lp726
(S'MyCo.Capital.PL.Expenses.Utilities'
I51
Ntp727
a(g9
I-51
Ntp728
asba(itransac
Transaction
p729
(dp730
g4
I923698800
sg5
S'Bill paid - Contractor'
p731
sg7
(lp732
(g136
F1762.5
Ntp733
a(g9
F-1762.5
Ntp734
asba(itransac
Transaction
p735
(dp736
g4
I923950800
sg5
S'Payment received - Consulting to 2-Mar-1999 22: 0: 0'
p737
sg7
(lp738
(g256
F-12220
Ntp739
a(g9
F12220
Ntp740
asba(itransac
Transaction
p741
(dp742
g4
I924044400
sg5
S'Bill received - Contractor'
p743
sg7
(lp744
(S'MyCo.Capital.PL.Expenses.Contractors'
I1500
Ntp745
a(g32
F262.5
Ntp746
a(g136
F-1762.5
Ntp747
asba(itransac
Transaction
p748
(dp749
g4
I924296400
sg5
g302
sg7
(lp750
(g9
F-3525
Ntp751
a(g136
F3525
Ntp752
asba(itransac
Transaction
p753
(dp754
g4
I924303600
sg5
S'Bill paid - Contractor'
p755
sg7
(lp756
(g136
F1762.5
Ntp757
a(g9
F-1762.5
Ntp758
asba(itransac
Transaction
p759
(dp760
g4
I924379200
sg5
g131
sg7
(lp761
(g133
F3000
Ntp762
a(g32
F525
Ntp763
a(g136
F-3525
Ntp764
asba(itransac
Transaction
p765
(dp766
g4
I924390000
sg5
g45
sg7
(lp767
(S'MyCo.Capital.PL.Expenses.Travel'
I76
Ntp768
a(g9
I-76
Ntp769
asba(itransac
Transaction
p770
(dp771
g4
I924562800
sg5
g45
sg7
(lp772
(S'MyCo.Capital.PL.Expenses.Rent'
I31
Ntp773
a(g9
I-31
Ntp774
asba(itransac
Transaction
p775
(dp776
g4
I924649200
sg5
S'Bill received - Contractor'
p777
sg7
(lp778
(S'MyCo.Capital.PL.Expenses.Contractors'
I1500
Ntp779
a(g32
F262.5
Ntp780
a(g136
F-1762.5
Ntp781
asba(itransac
Transaction
p782
(dp783
g4
I924822000
sg5
g45
sg7
(lp784
(S'MyCo.Capital.PL.Expenses.Stationery'
I30
Ntp785
a(g9
I-30
Ntp786
asba(itransac
Transaction
p787
(dp788
g4
I924822000
sg5
g45
sg7
(lp789
(S'MyCo.Capital.PL.Expenses.Utilities'
I45
Ntp790
a(g9
I-45
Ntp791
asba(itransac
Transaction
p792
(dp793
g4
I924908400
sg5
S'Bill paid - Contractor'
p794
sg7
(lp795
(g136
F1762.5
Ntp796
a(g9
F-1762.5
Ntp797
asba(itransac
Transaction
p798
(dp799
g4
I924984000
sg5
S'Salary for Roger'
p800
sg7
(lp801
(S'MyCo.Capital.PL.Expenses.Wages'
I3000
Ntp802
a(g9
I-3000
Ntp803
asba(itransac
Transaction
p804
(dp805
g4
I924987600
sg5
S'Salary for Simon'
p806
sg7
(lp807
(S'MyCo.Capital.PL.Expenses.Wages'
I2000
Ntp808
a(g9
I-2000
Ntp809
asba(itransac
Transaction
p810
(dp811
g4
I924987600
sg5
S'Salary for Tim'
p812
sg7
(lp813
(S'MyCo.Capital.PL.Expenses.Wages'
I1500
Ntp814
a(g9
I-1500
Ntp815
asba(itransac
Transaction
p816
(dp817
g4
I924994800
sg5
S'Salary for Andy'
p818
sg7
(lp819
(S'MyCo.Capital.PL.Expenses.Wages'
I3000
Ntp820
a(g9
I-3000
Ntp821
asba(itransac
Transaction
p822
(dp823
g4
I925254000
sg5
S'Bill received - Contractor'
p824
sg7
(lp825
(S'MyCo.Capital.PL.Expenses.Contractors'
I1500
Ntp826
a(g32
F262.5
Ntp827
a(g136
F-1762.5
Ntp828
asba(itransac
Transaction
p829
(dp830
g4
I925254000
sg5
g45
sg7
(lp831
(S'MyCo.Capital.PL.Expenses.Travel'
I19
Ntp832
a(g9
I-19
Ntp833
asba(itransac
Transaction
p834
(dp835
g4
I925254000
sg5
g45
sg7
(lp836
(S'MyCo.Capital.PL.Expenses.Travel'
I24
Ntp837
a(g9
I-24
Ntp838
asba(itransac
Transaction
p839
(dp840
g4
I925340400
sg5
g45
sg7
(lp841
(S'MyCo.Capital.PL.Expenses.Labour'
I5
Ntp842
a(g9
I-5
Ntp843
asba(itransac
Transaction
p844
(dp845
g4
I925513200
sg5
S'Bill paid - Contractor'
p846
sg7
(lp847
(g136
F1762.5
Ntp848
a(g9
F-1762.5
Ntp849
asba(itransac
Transaction
p850
(dp851
g4
I925513200
sg5
g45
sg7
(lp852
(S'MyCo.Capital.PL.Expenses.Utilities'
I75
Ntp853
a(g9
I-75
Ntp854
asba(itransac
Transaction
p855
(dp856
g4
I925513200
sg5
g45
sg7
(lp857
(S'MyCo.Capital.PL.Expenses.Rent'
I82
Ntp858
a(g9
I-82
Ntp859
asba(itransac
Transaction
p860
(dp861
g4
I925513200
sg5
g45
sg7
(lp862
(S'MyCo.Capital.PL.Expenses.Utilities'
I9
Ntp863
a(g9
I-9
Ntp864
asba(itransac
Transaction
p865
(dp866
g4
I925599600
sg5
g45
sg7
(lp867
(S'MyCo.Capital.PL.Expenses.Labour'
I78
Ntp868
a(g9
I-78
Ntp869
asba(itransac
Transaction
p870
(dp871
g4
I925599600
sg5
g45
sg7
(lp872
(S'MyCo.Capital.PL.Expenses.Rent'
I59
Ntp873
a(g9
I-59
Ntp874
asba(itransac
Transaction
p875
(dp876
g4
I925675200
sg5
S'Cash Sale - Product Sales for month'
p877
sg7
(lp878
(S'MyCo.Capital.PL.Income.Software'
I0
Ntp879
a(g32
F-0
Ntp880
a(g9
F0
Ntp881
asba(itransac
Transaction
p882
(dp883
g4
I925758000
sg5
g15
sg7
(lp884
(S'MyCo.Capital.PL.Expenses.Rent'
I1500
Ntp885
a(g18
I-1500
Ntp886
asba(itransac
Transaction
p887
(dp888
g4
I925758000
sg5
g28
sg7
(lp889
(g30
F348
Ntp890
a(g32
F60.899999999999999
Ntp891
a(g9
F-408.90000000000003
Ntp892
asba(itransac
Transaction
p893
(dp894
g4
I925758000
sg5
g37
sg7
(lp895
(g39
F1000
Ntp896
a(g32
F175
Ntp897
a(g9
F-1175
Ntp898
asba(itransac
Transaction
p899
(dp900
g4
I925761600
sg5
g444
sg7
(lp901
(g9
F-461.44999999999999
Ntp902
a(g232
F384.44999999999999
Ntp903
a(g448
F77
Ntp904
asba(itransac
Transaction
p905
(dp906
g4
I925772400
sg5
g45
sg7
(lp907
(S'MyCo.Capital.PL.Expenses.Travel'
I52
Ntp908
a(g9
I-52
Ntp909
asba(itransac
Transaction
p910
(dp911
g4
I925858800
sg5
S'Bill received - Contractor'
p912
sg7
(lp913
(S'MyCo.Capital.PL.Expenses.Contractors'
I1500
Ntp914
a(g32
F262.5
Ntp915
a(g136
F-1762.5
Ntp916
asba(itransac
Transaction
p917
(dp918
g4
I925945200
sg5
g45
sg7
(lp919
(S'MyCo.Capital.PL.Expenses.Labour'
I4
Ntp920
a(g9
I-4
Ntp921
asba(itransac
Transaction
p922
(dp923
g4
I926031600
sg5
g45
sg7
(lp924
(S'MyCo.Capital.PL.Expenses.Rent'
I71
Ntp925
a(g9
I-71
Ntp926
asba(itransac
Transaction
p927
(dp928
g4
I926118000
sg5
S'Bill paid - Contractor'
p929
sg7
(lp930
(g136
F1762.5
Ntp931
a(g9
F-1762.5
Ntp932
asba(itransac
Transaction
p933
(dp934
g4
I926118000
sg5
g45
sg7
(lp935
(S'MyCo.Capital.PL.Expenses.Rent'
I39
Ntp936
a(g9
I-39
Ntp937
asba(itransac
Transaction
p938
(dp939
g4
I926118000
sg5
g45
sg7
(lp940
(S'MyCo.Capital.PL.Expenses.Utilities'
I64
Ntp941
a(g9
I-64
Ntp942
asba(itransac
Transaction
p943
(dp944
g4
I926190000
sg5
S'Bill raised - Consulting to 2-May-1999 20: 0: 0'
p945
sg7
(lp946
(S'MyCo.Capital.PL.Income.Consulting'
I-13000
Ntp947
a(g32
F-2275
Ntp948
a(g256
F15275
Ntp949
asba(itransac
Transaction
p950
(dp951
g4
I926204400
sg5
g45
sg7
(lp952
(S'MyCo.Capital.PL.Expenses.Travel'
I73
Ntp953
a(g9
I-73
Ntp954
asba(itransac
Transaction
p955
(dp956
g4
I926290800
sg5
g45
sg7
(lp957
(S'MyCo.Capital.PL.Expenses.Labour'
I53
Ntp958
a(g9
I-53
Ntp959
asba(itransac
Transaction
p960
(dp961
g4
I926290800
sg5
g45
sg7
(lp962
(S'MyCo.Capital.PL.Expenses.Travel'
I30
Ntp963
a(g9
I-30
Ntp964
asba(itransac
Transaction
p965
(dp966
g4
I926377200
sg5
g45
sg7
(lp967
(S'MyCo.Capital.PL.Expenses.Stationery'
I59
Ntp968
a(g9
I-59
Ntp969
asba(itransac
Transaction
p970
(dp971
g4
I926463600
sg5
S'Bill received - Contractor'
p972
sg7
(lp973
(S'MyCo.Capital.PL.Expenses.Contractors'
I1500
Ntp974
a(g32
F262.5
Ntp975
a(g136
F-1762.5
Ntp976
asba(itransac
Transaction
p977
(dp978
g4
I926625600
sg5
S'Payment received - Consulting to 2-Apr-1999 21: 0: 0'
p979
sg7
(lp980
(g256
F-13160
Ntp981
a(g9
F13160
Ntp982
asba(itransac
Transaction
p983
(dp984
g4
I926636400
sg5
g45
sg7
(lp985
(S'MyCo.Capital.PL.Expenses.Rent'
I1
Ntp986
a(g9
I-1
Ntp987
asba(itransac
Transaction
p988
(dp989
g4
I926722800
sg5
S'Bill paid - Contractor'
p990
sg7
(lp991
(g136
F1762.5
Ntp992
a(g9
F-1762.5
Ntp993
asba(itransac
Transaction
p994
(dp995
g4
I926722800
sg5
g45
sg7
(lp996
(S'MyCo.Capital.PL.Expenses.Travel'
I30
Ntp997
a(g9
I-30
Ntp998
asba(itransac
Transaction
p999
(dp1000
g4
I926809200
sg5
g45
sg7
(lp1001
(S'MyCo.Capital.PL.Expenses.Rent'
I60
Ntp1002
a(g9
I-60
Ntp1003
asba(itransac
Transaction
p1004
(dp1005
g4
I926884800
sg5
g302
sg7
(lp1006
(g9
F-3525
Ntp1007
a(g136
F3525
Ntp1008
asba(itransac
Transaction
p1009
(dp1010
g4
I926967600
sg5
g131
sg7
(lp1011
(g133
F1500
Ntp1012
a(g32
F262.5
Ntp1013
a(g136
F-1762.5
Ntp1014
asba(itransac
Transaction
p1015
(dp1016
g4
I927068400
sg5
S'Bill received - Contractor'
p1017
sg7
(lp1018
(S'MyCo.Capital.PL.Expenses.Contractors'
I1500
Ntp1019
a(g32
F262.5
Ntp1020
a(g136
F-1762.5
Ntp1021
asba(itransac
Transaction
p1022
(dp1023
g4
I927154800
sg5
g45
sg7
(lp1024
(S'MyCo.Capital.PL.Expenses.Rent'
I48
Ntp1025
a(g9
I-48
Ntp1026
asba(itransac
Transaction
p1027
(dp1028
g4
I927327600
sg5
S'Bill paid - Contractor'
p1029
sg7
(lp1030
(g136
F1762.5
Ntp1031
a(g9
F-1762.5
Ntp1032
asba(itransac
Transaction
p1033
(dp1034
g4
I927327600
sg5
g45
sg7
(lp1035
(S'MyCo.Capital.PL.Expenses.Travel'
I61
Ntp1036
a(g9
I-61
Ntp1037
asba(itransac
Transaction
p1038
(dp1039
g4
I927327600
sg5
g45
sg7
(lp1040
(S'MyCo.Capital.PL.Expenses.Utilities'
I29
Ntp1041
a(g9
I-29
Ntp1042
asba(itransac
Transaction
p1043
(dp1044
g4
I927572400
sg5
S'Salary for Roger'
p1045
sg7
(lp1046
(S'MyCo.Capital.PL.Expenses.Wages'
I3000
Ntp1047
a(g9
I-3000
Ntp1048
asba(itransac
Transaction
p1049
(dp1050
g4
I927576000
sg5
S'Salary for Simon'
p1051
sg7
(lp1052
(S'MyCo.Capital.PL.Expenses.Wages'
I2000
Ntp1053
a(g9
I-2000
Ntp1054
asba(itransac
Transaction
p1055
(dp1056
g4
I927576000
sg5
S'Salary for Tim'
p1057
sg7
(lp1058
(S'MyCo.Capital.PL.Expenses.Wages'
I1500
Ntp1059
a(g9
I-1500
Ntp1060
asba(itransac
Transaction
p1061
(dp1062
g4
I927583200
sg5
S'Salary for Andy'
p1063
sg7
(lp1064
(S'MyCo.Capital.PL.Expenses.Wages'
I3000
Ntp1065
a(g9
I-3000
Ntp1066
asba(itransac
Transaction
p1067
(dp1068
g4
I927586800
sg5
g45
sg7
(lp1069
(S'MyCo.Capital.PL.Expenses.Labour'
I79
Ntp1070
a(g9
I-79
Ntp1071
asba(itransac
Transaction
p1072
(dp1073
g4
I927673200
sg5
S'Bill received - Contractor'
p1074
sg7
(lp1075
(S'MyCo.Capital.PL.Expenses.Contractors'
I1500
Ntp1076
a(g32
F262.5
Ntp1077
a(g136
F-1762.5
Ntp1078
asba(itransac
Transaction
p1079
(dp1080
g4
I927759600
sg5
g45
sg7
(lp1081
(S'MyCo.Capital.PL.Expenses.Utilities'
I27
Ntp1082
a(g9
I-27
Ntp1083
asba(itransac
Transaction
p1084
(dp1085
g4
I927846000
sg5
g45
sg7
(lp1086
(S'MyCo.Capital.PL.Expenses.Travel'
I100
Ntp1087
a(g9
I-100
Ntp1088
asba(itransac
Transaction
p1089
(dp1090
g4
I927932400
sg5
S'Bill paid - Contractor'
p1091
sg7
(lp1092
(g136
F1762.5
Ntp1093
a(g9
F-1762.5
Ntp1094
asba(itransac
Transaction
p1095
(dp1096
g4
I928105200
sg5
g45
sg7
(lp1097
(S'MyCo.Capital.PL.Expenses.Utilities'
I75
Ntp1098
a(g9
I-75
Ntp1099
asba(itransac
Transaction
p1100
(dp1101
g4
I928278000
sg5
S'Bill received - Contractor'
p1102
sg7
(lp1103
(S'MyCo.Capital.PL.Expenses.Contractors'
I1500
Ntp1104
a(g32
F262.5
Ntp1105
a(g136
F-1762.5
Ntp1106
asba(itransac
Transaction
p1107
(dp1108
g4
I928278000
sg5
g45
sg7
(lp1109
(S'MyCo.Capital.PL.Expenses.Stationery'
I15
Ntp1110
a(g9
I-15
Ntp1111
asba(itransac
Transaction
p1112
(dp1113
g4
I928350000
sg5
S'Cash Sale - Product Sales for month'
p1114
sg7
(lp1115
(S'MyCo.Capital.PL.Income.Software'
I0
Ntp1116
a(g32
F-0
Ntp1117
a(g9
F0
Ntp1118
asba(itransac
Transaction
p1119
(dp1120
g4
I928364400
sg5
g45
sg7
(lp1121
(S'MyCo.Capital.PL.Expenses.Labour'
I18
Ntp1122
a(g9
I-18
Ntp1123
asba(itransac
Transaction
p1124
(dp1125
g4
I928432800
sg5
g15
sg7
(lp1126
(S'MyCo.Capital.PL.Expenses.Rent'
I1500
Ntp1127
a(g18
I-1500
Ntp1128
asba(itransac
Transaction
p1129
(dp1130
g4
I928432800
sg5
g28
sg7
(lp1131
(g30
F503
Ntp1132
a(g32
F88.024999999999991
Ntp1133
a(g9
F-591.02499999999998
Ntp1134
asba(itransac
Transaction
p1135
(dp1136
g4
I928432800
sg5
g37
sg7
(lp1137
(g39
F1000
Ntp1138
a(g32
F175
Ntp1139
a(g9
F-1175
Ntp1140
asba(itransac
Transaction
p1141
(dp1142
g4
I928436400
sg5
g444
sg7
(lp1143
(g9
F-461.44999999999999
Ntp1144
a(g232
F387.64999999999998
Ntp1145
a(g448
F73.799999999999997
Ntp1146
asba(itransac
Transaction
p1147
(dp1148
g4
I928450800
sg5
g45
sg7
(lp1149
(S'MyCo.Capital.PL.Expenses.Labour'
I65
Ntp1150
a(g9
I-65
Ntp1151
asba(itransac
Transaction
p1152
(dp1153
g4
I928537200
sg5
S'Bill paid - Contractor'
p1154
sg7
(lp1155
(g136
F1762.5
Ntp1156
a(g9
F-1762.5
Ntp1157
asba(itransac
Transaction
p1158
(dp1159
g4
I928537200
sg5
g45
sg7
(lp1160
(S'MyCo.Capital.PL.Expenses.Rent'
I92
Ntp1161
a(g9
I-92
Ntp1162
asba(itransac
Transaction
p1163
(dp1164
g4
I928623600
sg5
g45
sg7
(lp1165
(S'MyCo.Capital.PL.Expenses.Travel'
I87
Ntp1166
a(g9
I-87
Ntp1167
asba(itransac
Transaction
p1168
(dp1169
g4
I928864800
sg5
S'Bill raised - Consulting to 2-Jun-1999 19: 0: 0'
p1170
sg7
(lp1171
(S'MyCo.Capital.PL.Income.Consulting'
I-14800
Ntp1172
a(g32
F-2590
Ntp1173
a(g256
F17390
Ntp1174
asba(itransac
Transaction
p1175
(dp1176
g4
I928882800
sg5
S'Bill received - Contractor'
p1177
sg7
(lp1178
(S'MyCo.Capital.PL.Expenses.Contractors'
I1500
Ntp1179
a(g32
F262.5
Ntp1180
a(g136
F-1762.5
Ntp1181
asba(itransac
Transaction
p1182
(dp1183
g4
I928882800
sg5
g45
sg7
(lp1184
(S'MyCo.Capital.PL.Expenses.Labour'
I99
Ntp1185
a(g9
I-99
Ntp1186
asba(itransac
Transaction
p1187
(dp1188
g4
I929142000
sg5
S'Bill paid - Contractor'
p1189
sg7
(lp1190
(g136
F1762.5
Ntp1191
a(g9
F-1762.5
Ntp1192
asba(itransac
Transaction
p1193
(dp1194
g4
I929214000
sg5
S'Payment received - Consulting to 2-May-1999 20: 0: 0'
p1195
sg7
(lp1196
(g256
F-15275
Ntp1197
a(g9
F15275
Ntp1198
asba(itransac
Transaction
p1199
(dp1200
g4
I929228400
sg5
g45
sg7
(lp1201
(S'MyCo.Capital.PL.Expenses.Rent'
I32
Ntp1202
a(g9
I-32
Ntp1203
asba(itransac
Transaction
p1204
(dp1205
g4
I929228400
sg5
g45
sg7
(lp1206
(S'MyCo.Capital.PL.Expenses.Stationery'
I13
Ntp1207
a(g9
I-13
Ntp1208
asba(itransac
Transaction
p1209
(dp1210
g4
I929228400
sg5
g45
sg7
(lp1211
(S'MyCo.Capital.PL.Expenses.Rent'
I9
Ntp1212
a(g9
I-9
Ntp1213
asba(itransac
Transaction
p1214
(dp1215
g4
I929487600
sg5
S'Bill received - Contractor'
p1216
sg7
(lp1217
(S'MyCo.Capital.PL.Expenses.Contractors'
I1500
Ntp1218
a(g32
F262.5
Ntp1219
a(g136
F-1762.5
Ntp1220
asba(itransac
Transaction
p1221
(dp1222
g4
I929487600
sg5
g45
sg7
(lp1223
(S'MyCo.Capital.PL.Expenses.Travel'
I89
Ntp1224
a(g9
I-89
Ntp1225
asba(itransac
Transaction
p1226
(dp1227
g4
I929559600
sg5
g302
sg7
(lp1228
(g9
F-1762.5
Ntp1229
a(g136
F1762.5
Ntp1230
asba(itransac
Transaction
p1231
(dp1232
g4
I929642400
sg5
g131
sg7
(lp1233
(g133
F1500
Ntp1234
a(g32
F262.5
Ntp1235
a(g136
F-1762.5
Ntp1236
asba(itransac
Transaction
p1237
(dp1238
g4
I929660400
sg5
g45
sg7
(lp1239
(S'MyCo.Capital.PL.Expenses.Travel'
I1
Ntp1240
a(g9
I-1
Ntp1241
asba(itransac
Transaction
p1242
(dp1243
g4
I929746800
sg5
S'Bill paid - Contractor'
p1244
sg7
(lp1245
(g136
F1762.5
Ntp1246
a(g9
F-1762.5
Ntp1247
asba(itransac
Transaction
p1248
(dp1249
g4
I929833200
sg5
g45
sg7
(lp1250
(S'MyCo.Capital.PL.Expenses.Utilities'
I100
Ntp1251
a(g9
I-100
Ntp1252
asba(itransac
Transaction
p1253
(dp1254
g4
I929919600
sg5
g45
sg7
(lp1255
(S'MyCo.Capital.PL.Expenses.Stationery'
I94
Ntp1256
a(g9
I-94
Ntp1257
asba(itransac
Transaction
p1258
(dp1259
g4
I930092400
sg5
S'Bill received - Contractor'
p1260
sg7
(lp1261
(S'MyCo.Capital.PL.Expenses.Contractors'
I1500
Ntp1262
a(g32
F262.5
Ntp1263
a(g136
F-1762.5
Ntp1264
asba(itransac
Transaction
p1265
(dp1266
g4
I930178800
sg5
g45
sg7
(lp1267
(S'MyCo.Capital.PL.Expenses.Labour'
I49
Ntp1268
a(g9
I-49
Ntp1269
asba(itransac
Transaction
p1270
(dp1271
g4
I930247200
sg5
S'Salary for Roger'
p1272
sg7
(lp1273
(S'MyCo.Capital.PL.Expenses.Wages'
I3000
Ntp1274
a(g9
I-3000
Ntp1275
asba(itransac
Transaction
p1276
(dp1277
g4
I930250800
sg5
S'Salary for Simon'
p1278
sg7
(lp1279
(S'MyCo.Capital.PL.Expenses.Wages'
I2000
Ntp1280
a(g9
I-2000
Ntp1281
asba(itransac
Transaction
p1282
(dp1283
g4
I930250800
sg5
S'Salary for Tim'
p1284
sg7
(lp1285
(S'MyCo.Capital.PL.Expenses.Wages'
I1500
Ntp1286
a(g9
I-1500
Ntp1287
asba(itransac
Transaction
p1288
(dp1289
g4
I930258000
sg5
S'Salary for Andy'
p1290
sg7
(lp1291
(S'MyCo.Capital.PL.Expenses.Wages'
I3000
Ntp1292
a(g9
I-3000
Ntp1293
asba(itransac
Transaction
p1294
(dp1295
g4
I930265200
sg5
g45
sg7
(lp1296
(S'MyCo.Capital.PL.Expenses.Stationery'
I93
Ntp1297
a(g9
I-93
Ntp1298
asba(itransac
Transaction
p1299
(dp1300
g4
I930351600
sg5
S'Bill paid - Contractor'
p1301
sg7
(lp1302
(g136
F1762.5
Ntp1303
a(g9
F-1762.5
Ntp1304
asba(itransac
Transaction
p1305
(dp1306
g4
I930438000
sg5
g45
sg7
(lp1307
(S'MyCo.Capital.PL.Expenses.Utilities'
I68
Ntp1308
a(g9
I-68
Ntp1309
asba(itransac
Transaction
p1310
(dp1311
g4
I930610800
sg5
g45
sg7
(lp1312
(S'MyCo.Capital.PL.Expenses.Labour'
I9
Ntp1313
a(g9
I-9
Ntp1314
asba(itransac
Transaction
p1315
(dp1316
g4
I930610800
sg5
g45
sg7
(lp1317
(S'MyCo.Capital.PL.Expenses.Utilities'
I35
Ntp1318
a(g9
I-35
Ntp1319
asba(itransac
Transaction
p1320
(dp1321
g4
I930697200
sg5
S'Bill received - Contractor'
p1322
sg7
(lp1323
(S'MyCo.Capital.PL.Expenses.Contractors'
I1500
Ntp1324
a(g32
F262.5
Ntp1325
a(g136
F-1762.5
Ntp1326
asba(itransac
Transaction
p1327
(dp1328
g4
I930783600
sg5
g45
sg7
(lp1329
(S'MyCo.Capital.PL.Expenses.Travel'
I85
Ntp1330
a(g9
I-85
Ntp1331
asba(itransac
Transaction
p1332
(dp1333
g4
I930783600
sg5
g45
sg7
(lp1334
(S'MyCo.Capital.PL.Expenses.Rent'
I26
Ntp1335
a(g9
I-26
Ntp1336
asba(itransac
Transaction
p1337
(dp1338
g4
I930862800
sg5
g22
sg7
(lp1339
(g18
I4500
Ntp1340
a(g9
I-4500
Ntp1341
asba(itransac
Transaction
p1342
(dp1343
g4
I930870000
sg5
g45
sg7
(lp1344
(S'MyCo.Capital.PL.Expenses.Utilities'
I90
Ntp1345
a(g9
I-90
Ntp1346
asba(itransac
Transaction
p1347
(dp1348
g4
I930938400
sg5
S'Cash Sale - Product Sales for month'
p1349
sg7
(lp1350
(S'MyCo.Capital.PL.Income.Software'
I0
Ntp1351
a(g32
F-0
Ntp1352
a(g9
F0
Ntp1353
asba(itransac
Transaction
p1354
(dp1355
g4
I930956400
sg5
S'Bill paid - Contractor'
p1356
sg7
(lp1357
(g136
F1762.5
Ntp1358
a(g9
F-1762.5
Ntp1359
asba(itransac
Transaction
p1360
(dp1361
g4
I931021200
sg5
g15
sg7
(lp1362
(S'MyCo.Capital.PL.Expenses.Rent'
I1500
Ntp1363
a(g18
I-1500
Ntp1364
asba(itransac
Transaction
p1365
(dp1366
g4
I931021200
sg5
g28
sg7
(lp1367
(g30
F350
Ntp1368
a(g32
F61.249999999999993
Ntp1369
a(g9
F-411.25
Ntp1370
asba(itransac
Transaction
p1371
(dp1372
g4
I931021200
sg5
g37
sg7
(lp1373
(g39
F1000
Ntp1374
a(g32
F175
Ntp1375
a(g9
F-1175
Ntp1376
asba(itransac
Transaction
p1377
(dp1378
g4
I931024800
sg5
g444
sg7
(lp1379
(g9
F-461.44999999999999
Ntp1380
a(g232
F390.88
Ntp1381
a(g448
F70.570000000000007
Ntp1382
asba(itransac
Transaction
p1383
(dp1384
g4
I931042800
sg5
g45
sg7
(lp1385
(S'MyCo.Capital.PL.Expenses.Travel'
I46
Ntp1386
a(g9
I-46
Ntp1387
asba(itransac
Transaction
p1388
(dp1389
g4
I931302000
sg5
S'Bill received - Contractor'
p1390
sg7
(lp1391
(S'MyCo.Capital.PL.Expenses.Contractors'
I1500
Ntp1392
a(g32
F262.5
Ntp1393
a(g136
F-1762.5
Ntp1394
asba(itransac
Transaction
p1395
(dp1396
g4
I931388400
sg5
g45
sg7
(lp1397
(S'MyCo.Capital.PL.Expenses.Rent'
I63
Ntp1398
a(g9
I-63
Ntp1399
asba(itransac
Transaction
p1400
(dp1401
g4
I931388400
sg5
g45
sg7
(lp1402
(S'MyCo.Capital.PL.Expenses.Labour'
I56
Ntp1403
a(g9
I-56
Ntp1404
asba(itransac
Transaction
p1405
(dp1406
g4
I931388400
sg5
g45
sg7
(lp1407
(S'MyCo.Capital.PL.Expenses.Stationery'
I17
Ntp1408
a(g9
I-17
Ntp1409
asba(itransac
Transaction
p1410
(dp1411
g4
I931453200
sg5
S'Bill raised - Consulting to 2-Jul-1999 18: 0: 0'
p1412
sg7
(lp1413
(S'MyCo.Capital.PL.Income.Consulting'
I-16600
Ntp1414
a(g32
F-2905
Ntp1415
a(g256
F19505
Ntp1416
asba(itransac
Transaction
p1417
(dp1418
g4
I931474800
sg5
g45
sg7
(lp1419
(S'MyCo.Capital.PL.Expenses.Travel'
I80
Ntp1420
a(g9
I-80
Ntp1421
asba(itransac
Transaction
p1422
(dp1423
g4
I931561200
sg5
S'Bill paid - Contractor'
p1424
sg7
(lp1425
(g136
F1762.5
Ntp1426
a(g9
F-1762.5
Ntp1427
asba(itransac
Transaction
p1428
(dp1429
g4
I931561200
sg5
g45
sg7
(lp1430
(S'MyCo.Capital.PL.Expenses.Utilities'
I1
Ntp1431
a(g9
I-1
Ntp1432
asba(itransac
Transaction
p1433
(dp1434
g4
I931734000
sg5
g45
sg7
(lp1435
(S'MyCo.Capital.PL.Expenses.Stationery'
I54
Ntp1436
a(g9
I-54
Ntp1437
asba(itransac
Transaction
p1438
(dp1439
g4
I931888800
sg5
S'Payment received - Consulting to 2-Jun-1999 19: 0: 0'
p1440
sg7
(lp1441
(g256
F-17390
Ntp1442
a(g9
F17390
Ntp1443
asba(itransac
Transaction
p1444
(dp1445
g4
I931906800
sg5
S'Bill received - Contractor'
p1446
sg7
(lp1447
(S'MyCo.Capital.PL.Expenses.Contractors'
I1500
Ntp1448
a(g32
F262.5
Ntp1449
a(g136
F-1762.5
Ntp1450
asba(itransac
Transaction
p1451
(dp1452
g4
I931993200
sg5
g45
sg7
(lp1453
(S'MyCo.Capital.PL.Expenses.Rent'
I40
Ntp1454
a(g9
I-40
Ntp1455
asba(itransac
Transaction
p1456
(dp1457
g4
I931993200
sg5
g45
sg7
(lp1458
(S'MyCo.Capital.PL.Expenses.Stationery'
I17
Ntp1459
a(g9
I-17
Ntp1460
asba(itransac
Transaction
p1461
(dp1462
g4
I932079600
sg5
g45
sg7
(lp1463
(S'MyCo.Capital.PL.Expenses.Stationery'
I64
Ntp1464
a(g9
I-64
Ntp1465
asba(itransac
Transaction
p1466
(dp1467
g4
I932148000
sg5
g302
sg7
(lp1468
(g9
F-1762.5
Ntp1469
a(g136
F1762.5
Ntp1470
asba(itransac
Transaction
p1471
(dp1472
g4
I932166000
sg5
S'Bill paid - Contractor'
p1473
sg7
(lp1474
(g136
F1762.5
Ntp1475
a(g9
F-1762.5
Ntp1476
asba(itransac
Transaction
p1477
(dp1478
g4
I932166000
sg5
g45
sg7
(lp1479
(S'MyCo.Capital.PL.Expenses.Labour'
I47
Ntp1480
a(g9
I-47
Ntp1481
asba(itransac
Transaction
p1482
(dp1483
g4
I932230800
sg5
g131
sg7
(lp1484
(g133
F1500
Ntp1485
a(g32
F262.5
Ntp1486
a(g136
F-1762.5
Ntp1487
asba(itransac
Transaction
p1488
(dp1489
g4
I932252400
sg5
g45
sg7
(lp1490
(S'MyCo.Capital.PL.Expenses.Labour'
I58
Ntp1491
a(g9
I-58
Ntp1492
asba(itransac
Transaction
p1493
(dp1494
g4
I932252400
sg5
g45
sg7
(lp1495
(S'MyCo.Capital.PL.Expenses.Travel'
I30
Ntp1496
a(g9
I-30
Ntp1497
asba(itransac
Transaction
p1498
(dp1499
g4
I932338800
sg5
g45
sg7
(lp1500
(S'MyCo.Capital.PL.Expenses.Rent'
I71
Ntp1501
a(g9
I-71
Ntp1502
asba(itransac
Transaction
p1503
(dp1504
g4
I932511600
sg5
S'Bill received - Contractor'
p1505
sg7
(lp1506
(S'MyCo.Capital.PL.Expenses.Contractors'
I1500
Ntp1507
a(g32
F262.5
Ntp1508
a(g136
F-1762.5
Ntp1509
asba(itransac
Transaction
p1510
(dp1511
g4
I932511600
sg5
g45
sg7
(lp1512
(S'MyCo.Capital.PL.Expenses.Utilities'
I56
Ntp1513
a(g9
I-56
Ntp1514
asba(itransac
Transaction
p1515
(dp1516
g4
I932684400
sg5
g45
sg7
(lp1517
(S'MyCo.Capital.PL.Expenses.Utilities'
I24
Ntp1518
a(g9
I-24
Ntp1519
asba(itransac
Transaction
p1520
(dp1521
g4
I932770800
sg5
S'Bill paid - Contractor'
p1522
sg7
(lp1523
(g136
F1762.5
Ntp1524
a(g9
F-1762.5
Ntp1525
asba(itransac
Transaction
p1526
(dp1527
g4
I932770800
sg5
g45
sg7
(lp1528
(S'MyCo.Capital.PL.Expenses.Travel'
I94
Ntp1529
a(g9
I-94
Ntp1530
asba(itransac
Transaction
p1531
(dp1532
g4
I932835600
sg5
S'Salary for Roger'
p1533
sg7
(lp1534
(S'MyCo.Capital.PL.Expenses.Wages'
I3000
Ntp1535
a(g9
I-3000
Ntp1536
asba(itransac
Transaction
p1537
(dp1538
g4
I932839200
sg5
S'Salary for Simon'
p1539
sg7
(lp1540
(S'MyCo.Capital.PL.Expenses.Wages'
I2000
Ntp1541
a(g9
I-2000
Ntp1542
asba(itransac
Transaction
p1543
(dp1544
g4
I932839200
sg5
S'Salary for Tim'
p1545
sg7
(lp1546
(S'MyCo.Capital.PL.Expenses.Wages'
I1500
Ntp1547
a(g9
I-1500
Ntp1548
asba(itransac
Transaction
p1549
(dp1550
g4
I932846400
sg5
S'Salary for Andy'
p1551
sg7
(lp1552
(S'MyCo.Capital.PL.Expenses.Wages'
I3000
Ntp1553
a(g9
I-3000
Ntp1554
asba(itransac
Transaction
p1555
(dp1556
g4
I932857200
sg5
g45
sg7
(lp1557
(S'MyCo.Capital.PL.Expenses.Rent'
I56
Ntp1558
a(g9
I-56
Ntp1559
asba(itransac
Transaction
p1560
(dp1561
g4
I933116400
sg5
S'Bill received - Contractor'
p1562
sg7
(lp1563
(S'MyCo.Capital.PL.Expenses.Contractors'
I1500
Ntp1564
a(g32
F262.5
Ntp1565
a(g136
F-1762.5
Ntp1566
asba(itransac
Transaction
p1567
(dp1568
g4
I933116400
sg5
g45
sg7
(lp1569
(S'MyCo.Capital.PL.Expenses.Rent'
I40
Ntp1570
a(g9
I-40
Ntp1571
asba(itransac
Transaction
p1572
(dp1573
g4
I933202800
sg5
g45
sg7
(lp1574
(S'MyCo.Capital.PL.Expenses.Rent'
I24
Ntp1575
a(g9
I-24
Ntp1576
asba(itransac
Transaction
p1577
(dp1578
g4
I933375600
sg5
S'Bill paid - Contractor'
p1579
sg7
(lp1580
(g136
F1762.5
Ntp1581
a(g9
F-1762.5
Ntp1582
asba(itransac
Transaction
p1583
(dp1584
g4
I933613200
sg5
S'Cash Sale - Product Sales for month'
p1585
sg7
(lp1586
(S'MyCo.Capital.PL.Income.Software'
I0
Ntp1587
a(g32
F-0
Ntp1588
a(g9
F0
Ntp1589
asba(itransac
Transaction
p1590
(dp1591
g4
I933634800
sg5
g45
sg7
(lp1592
(S'MyCo.Capital.PL.Expenses.Utilities'
I61
Ntp1593
a(g9
I-61
Ntp1594
asba(itransac
Transaction
p1595
(dp1596
g4
I933696000
sg5
g15
sg7
(lp1597
(S'MyCo.Capital.PL.Expenses.Rent'
I1500
Ntp1598
a(g18
I-1500
Ntp1599
asba(itransac
Transaction
p1600
(dp1601
g4
I933696000
sg5
g28
sg7
(lp1602
(g30
F521
Ntp1603
a(g32
F91.174999999999997
Ntp1604
a(g9
F-612.17500000000007
Ntp1605
asba(itransac
Transaction
p1606
(dp1607
g4
I933696000
sg5
g37
sg7
(lp1608
(g39
F1200
Ntp1609
a(g32
F210
Ntp1610
a(g9
F-1410
Ntp1611
asba(itransac
Transaction
p1612
(dp1613
g4
I933699600
sg5
g444
sg7
(lp1614
(g9
F-461.44999999999999
Ntp1615
a(g232
F394.13999999999999
Ntp1616
a(g448
F67.310000000000002
Ntp1617
asba(itransac
Transaction
p1618
(dp1619
g4
I933721200
sg5
S'Bill received - Contractor'
p1620
sg7
(lp1621
(S'MyCo.Capital.PL.Expenses.Contractors'
I1500
Ntp1622
a(g32
F262.5
Ntp1623
a(g136
F-1762.5
Ntp1624
asba(itransac
Transaction
p1625
(dp1626
g4
I933807600
sg5
g45
sg7
(lp1627
(S'MyCo.Capital.PL.Expenses.Travel'
I30
Ntp1628
a(g9
I-30
Ntp1629
asba(itransac
Transaction
p1630
(dp1631
g4
I933980400
sg5
S'Bill paid - Contractor'
p1632
sg7
(lp1633
(g136
F1762.5
Ntp1634
a(g9
F-1762.5
Ntp1635
asba(itransac
Transaction
p1636
(dp1637
g4
I934128000
sg5
S'Bill raised - Consulting to 2-Aug-1999 17: 0: 0'
p1638
sg7
(lp1639
(S'MyCo.Capital.PL.Income.Consulting'
I-17600
Ntp1640
a(g32
F-3080
Ntp1641
a(g256
F20680
Ntp1642
asba(itransac
Transaction
p1643
(dp1644
g4
I934153200
sg5
g45
sg7
(lp1645
(S'MyCo.Capital.PL.Expenses.Utilities'
I37
Ntp1646
a(g9
I-37
Ntp1647
asba(itransac
Transaction
p1648
(dp1649
g4
I934326000
sg5
S'Bill received - Contractor'
p1650
sg7
(lp1651
(S'MyCo.Capital.PL.Expenses.Contractors'
I1500
Ntp1652
a(g32
F262.5
Ntp1653
a(g136
F-1762.5
Ntp1654
asba(itransac
Transaction
p1655
(dp1656
g4
I934326000
sg5
g45
sg7
(lp1657
(S'MyCo.Capital.PL.Expenses.Travel'
I43
Ntp1658
a(g9
I-43
Ntp1659
asba(itransac
Transaction
p1660
(dp1661
g4
I934477200
sg5
S'Payment received - Consulting to 2-Jul-1999 18: 0: 0'
p1662
sg7
(lp1663
(g256
F-19505
Ntp1664
a(g9
F19505
Ntp1665
asba(itransac
Transaction
p1666
(dp1667
g4
I934498800
sg5
g45
sg7
(lp1668
(S'MyCo.Capital.PL.Expenses.Travel'
I23
Ntp1669
a(g9
I-23
Ntp1670
asba(itransac
Transaction
p1671
(dp1672
g4
I934498800
sg5
g45
sg7
(lp1673
(S'MyCo.Capital.PL.Expenses.Travel'
I35
Ntp1674
a(g9
I-35
Ntp1675
asba(itransac
Transaction
p1676
(dp1677
g4
I934585200
sg5
S'Bill paid - Contractor'
p1678
sg7
(lp1679
(g136
F1762.5
Ntp1680
a(g9
F-1762.5
Ntp1681
asba(itransac
Transaction
p1682
(dp1683
g4
I934822800
sg5
g302
sg7
(lp1684
(g9
F-1762.5
Ntp1685
a(g136
F1762.5
Ntp1686
asba(itransac
Transaction
p1687
(dp1688
g4
I934844400
sg5
g45
sg7
(lp1689
(S'MyCo.Capital.PL.Expenses.Rent'
I37
Ntp1690
a(g9
I-37
Ntp1691
asba(itransac
Transaction
p1692
(dp1693
g4
I934905600
sg5
g131
sg7
(lp1694
(g133
F1500
Ntp1695
a(g32
F262.5
Ntp1696
a(g136
F-1762.5
Ntp1697
asba(itransac
Transaction
p1698
(dp1699
g4
I934930800
sg5
S'Bill received - Contractor'
p1700
sg7
(lp1701
(S'MyCo.Capital.PL.Expenses.Contractors'
I1500
Ntp1702
a(g32
F262.5
Ntp1703
a(g136
F-1762.5
Ntp1704
asba(itransac
Transaction
p1705
(dp1706
g4
I935190000
sg5
S'Bill paid - Contractor'
p1707
sg7
(lp1708
(g136
F1762.5
Ntp1709
a(g9
F-1762.5
Ntp1710
asba(itransac
Transaction
p1711
(dp1712
g4
I935362800
sg5
g45
sg7
(lp1713
(S'MyCo.Capital.PL.Expenses.Rent'
I96
Ntp1714
a(g9
I-96
Ntp1715
asba(itransac
Transaction
p1716
(dp1717
g4
I935510400
sg5
S'Salary for Roger'
p1718
sg7
(lp1719
(S'MyCo.Capital.PL.Expenses.Wages'
I3000
Ntp1720
a(g9
I-3000
Ntp1721
asba(itransac
Transaction
p1722
(dp1723
g4
I935514000
sg5
S'Salary for Simon'
p1724
sg7
(lp1725
(S'MyCo.Capital.PL.Expenses.Wages'
I2000
Ntp1726
a(g9
I-2000
Ntp1727
asba(itransac
Transaction
p1728
(dp1729
g4
I935514000
sg5
S'Salary for Tim'
p1730
sg7
(lp1731
(S'MyCo.Capital.PL.Expenses.Wages'
I1500
Ntp1732
a(g9
I-1500
Ntp1733
asba(itransac
Transaction
p1734
(dp1735
g4
I935521200
sg5
S'Salary for Andy'
p1736
sg7
(lp1737
(S'MyCo.Capital.PL.Expenses.Wages'
I3000
Ntp1738
a(g9
I-3000
Ntp1739
asba(itransac
Transaction
p1740
(dp1741
g4
I935535600
sg5
S'Salary for Richard'
p1742
sg7
(lp1743
(S'MyCo.Capital.PL.Expenses.Wages'
I3000
Ntp1744
a(g9
I-3000
Ntp1745
asba(itransac
Transaction
p1746
(dp1747
g4
I935535600
sg5
S'Bill received - Contractor'
p1748
sg7
(lp1749
(S'MyCo.Capital.PL.Expenses.Contractors'
I1500
Ntp1750
a(g32
F262.5
Ntp1751
a(g136
F-1762.5
Ntp1752
asba(itransac
Transaction
p1753
(dp1754
g4
I935794800
sg5
S'Bill paid - Contractor'
p1755
sg7
(lp1756
(g136
F1762.5
Ntp1757
a(g9
F-1762.5
Ntp1758
asba(itransac
Transaction
p1759
(dp1760
g4
I935794800
sg5
g45
sg7
(lp1761
(S'MyCo.Capital.PL.Expenses.Labour'
I64
Ntp1762
a(g9
I-64
Ntp1763
asba(itransac
Transaction
p1764
(dp1765
g4
I935794800
sg5
g45
sg7
(lp1766
(S'MyCo.Capital.PL.Expenses.Rent'
I25
Ntp1767
a(g9
I-25
Ntp1768
asba(itransac
Transaction
p1769
(dp1770
g4
I935881200
sg5
g45
sg7
(lp1771
(S'MyCo.Capital.PL.Expenses.Utilities'
I87
Ntp1772
a(g9
I-87
Ntp1773
asba(itransac
Transaction
p1774
(dp1775
g4
I936140400
sg5
S'Bill received - Contractor'
p1776
sg7
(lp1777
(S'MyCo.Capital.PL.Expenses.Contractors'
I1500
Ntp1778
a(g32
F262.5
Ntp1779
a(g136
F-1762.5
Ntp1780
asba(itransac
Transaction
p1781
(dp1782
g4
I936226800
sg5
g45
sg7
(lp1783
(S'MyCo.Capital.PL.Expenses.Travel'
I5
Ntp1784
a(g9
I-5
Ntp1785
asba(itransac
Transaction
p1786
(dp1787
g4
I936288000
sg5
S'Cash Sale - Product Sales for month'
p1788
sg7
(lp1789
(S'MyCo.Capital.PL.Income.Software'
I0
Ntp1790
a(g32
F-0
Ntp1791
a(g9
F0
Ntp1792
asba(itransac
Transaction
p1793
(dp1794
g4
I936313200
sg5
g45
sg7
(lp1795
(S'MyCo.Capital.PL.Expenses.Utilities'
I47
Ntp1796
a(g9
I-47
Ntp1797
asba(itransac
Transaction
p1798
(dp1799
g4
I936370800
sg5
g15
sg7
(lp1800
(S'MyCo.Capital.PL.Expenses.Rent'
I1500
Ntp1801
a(g18
I-1500
Ntp1802
asba(itransac
Transaction
p1803
(dp1804
g4
I936370800
sg5
g28
sg7
(lp1805
(g30
F387
Ntp1806
a(g32
F67.724999999999994
Ntp1807
a(g9
F-454.72500000000002
Ntp1808
asba(itransac
Transaction
p1809
(dp1810
g4
I936370800
sg5
g37
sg7
(lp1811
(g39
F1200
Ntp1812
a(g32
F210
Ntp1813
a(g9
F-1410
Ntp1814
asba(itransac
Transaction
p1815
(dp1816
g4
I936374400
sg5
g444
sg7
(lp1817
(g9
F-461.44999999999999
Ntp1818
a(g232
F397.43000000000001
Ntp1819
a(g448
F64.019999999999996
Ntp1820
asba(itransac
Transaction
p1821
(dp1822
g4
I936399600
sg5
S'Bill paid - Contractor'
p1823
sg7
(lp1824
(g136
F1762.5
Ntp1825
a(g9
F-1762.5
Ntp1826
asba(itransac
Transaction
p1827
(dp1828
g4
I936399600
sg5
g45
sg7
(lp1829
(S'MyCo.Capital.PL.Expenses.Travel'
I74
Ntp1830
a(g9
I-74
Ntp1831
asba(itransac
Transaction
p1832
(dp1833
g4
I936399600
sg5
g45
sg7
(lp1834
(S'MyCo.Capital.PL.Expenses.Labour'
I20
Ntp1835
a(g9
I-20
Ntp1836
asba(itransac
Transaction
p1837
(dp1838
g4
I936572400
sg5
g45
sg7
(lp1839
(S'MyCo.Capital.PL.Expenses.Utilities'
I31
Ntp1840
a(g9
I-31
Ntp1841
asba(itransac
Transaction
p1842
(dp1843
g4
I936572400
sg5
g45
sg7
(lp1844
(S'MyCo.Capital.PL.Expenses.Rent'
I95
Ntp1845
a(g9
I-95
Ntp1846
asba(itransac
Transaction
p1847
(dp1848
g4
I936745200
sg5
S'Bill received - Contractor'
p1849
sg7
(lp1850
(S'MyCo.Capital.PL.Expenses.Contractors'
I1500
Ntp1851
a(g32
F262.5
Ntp1852
a(g136
F-1762.5
Ntp1853
asba(itransac
Transaction
p1854
(dp1855
g4
I936745200
sg5
g45
sg7
(lp1856
(S'MyCo.Capital.PL.Expenses.Rent'
I3
Ntp1857
a(g9
I-3
Ntp1858
asba(itransac
Transaction
p1859
(dp1860
g4
I936745200
sg5
g45
sg7
(lp1861
(S'MyCo.Capital.PL.Expenses.Labour'
I100
Ntp1862
a(g9
I-100
Ntp1863
asba(itransac
Transaction
p1864
(dp1865
g4
I936802800
sg5
S'Bill raised - Consulting to 2-Sep-1999 16: 0: 0'
p1866
sg7
(lp1867
(S'MyCo.Capital.PL.Income.Consulting'
I-18600
Ntp1868
a(g32
F-3255
Ntp1869
a(g256
F21855
Ntp1870
asba(itransac
Transaction
p1871
(dp1872
g4
I936831600
sg5
g45
sg7
(lp1873
(S'MyCo.Capital.PL.Expenses.Travel'
I61
Ntp1874
a(g9
I-61
Ntp1875
asba(itransac
Transaction
p1876
(dp1877
g4
I937004400
sg5
S'Bill paid - Contractor'
p1878
sg7
(lp1879
(g136
F1762.5
Ntp1880
a(g9
F-1762.5
Ntp1881
asba(itransac
Transaction
p1882
(dp1883
g4
I937004400
sg5
g45
sg7
(lp1884
(S'MyCo.Capital.PL.Expenses.Stationery'
I77
Ntp1885
a(g9
I-77
Ntp1886
asba(itransac
Transaction
p1887
(dp1888
g4
I937152000
sg5
S'Payment received - Consulting to 2-Aug-1999 17: 0: 0'
p1889
sg7
(lp1890
(g256
F-20680
Ntp1891
a(g9
F20680
Ntp1892
asba(itransac
Transaction
p1893
(dp1894
g4
I937177200
sg5
g45
sg7
(lp1895
(S'MyCo.Capital.PL.Expenses.Labour'
I33
Ntp1896
a(g9
I-33
Ntp1897
asba(itransac
Transaction
p1898
(dp1899
g4
I937350000
sg5
S'Bill received - Contractor'
p1900
sg7
(lp1901
(S'MyCo.Capital.PL.Expenses.Contractors'
I1500
Ntp1902
a(g32
F262.5
Ntp1903
a(g136
F-1762.5
Ntp1904
asba(itransac
Transaction
p1905
(dp1906
g4
I937350000
sg5
g45
sg7
(lp1907
(S'MyCo.Capital.PL.Expenses.Rent'
I62
Ntp1908
a(g9
I-62
Ntp1909
asba(itransac
Transaction
p1910
(dp1911
g4
I937497600
sg5
g302
sg7
(lp1912
(g9
F-1762.5
Ntp1913
a(g136
F1762.5
Ntp1914
asba(itransac
Transaction
p1915
(dp1916
g4
I937580400
sg5
g131
sg7
(lp1917
(g133
F1500
Ntp1918
a(g32
F262.5
Ntp1919
a(g136
F-1762.5
Ntp1920
asba(itransac
Transaction
p1921
(dp1922
g4
I937609200
sg5
S'Bill paid - Contractor'
p1923
sg7
(lp1924
(g136
F1762.5
Ntp1925
a(g9
F-1762.5
Ntp1926
asba(itransac
Transaction
p1927
(dp1928
g4
I937609200
sg5
g45
sg7
(lp1929
(S'MyCo.Capital.PL.Expenses.Labour'
I85
Ntp1930
a(g9
I-85
Ntp1931
asba(itransac
Transaction
p1932
(dp1933
g4
I937609200
sg5
g45
sg7
(lp1934
(S'MyCo.Capital.PL.Expenses.Utilities'
I17
Ntp1935
a(g9
I-17
Ntp1936
asba(itransac
Transaction
p1937
(dp1938
g4
I937609200
sg5
g45
sg7
(lp1939
(S'MyCo.Capital.PL.Expenses.Travel'
I11
Ntp1940
a(g9
I-11
Ntp1941
asba(itransac
Transaction
p1942
(dp1943
g4
I937954800
sg5
S'Bill received - Contractor'
p1944
sg7
(lp1945
(S'MyCo.Capital.PL.Expenses.Contractors'
I1500
Ntp1946
a(g32
F262.5
Ntp1947
a(g136
F-1762.5
Ntp1948
asba(itransac
Transaction
p1949
(dp1950
g4
I938041200
sg5
g45
sg7
(lp1951
(S'MyCo.Capital.PL.Expenses.Utilities'
I91
Ntp1952
a(g9
I-91
Ntp1953
asba(itransac
Transaction
p1954
(dp1955
g4
I938127600
sg5
g45
sg7
(lp1956
(S'MyCo.Capital.PL.Expenses.Rent'
I56
Ntp1957
a(g9
I-56
Ntp1958
asba(itransac
Transaction
p1959
(dp1960
g4
I938185200
sg5
S'Salary for Roger'
p1961
sg7
(lp1962
(S'MyCo.Capital.PL.Expenses.Wages'
I3000
Ntp1963
a(g9
I-3000
Ntp1964
asba(itransac
Transaction
p1965
(dp1966
g4
I938188800
sg5
S'Salary for Simon'
p1967
sg7
(lp1968
(S'MyCo.Capital.PL.Expenses.Wages'
I2000
Ntp1969
a(g9
I-2000
Ntp1970
asba(itransac
Transaction
p1971
(dp1972
g4
I938188800
sg5
S'Salary for Tim'
p1973
sg7
(lp1974
(S'MyCo.Capital.PL.Expenses.Wages'
I1500
Ntp1975
a(g9
I-1500
Ntp1976
asba(itransac
Transaction
p1977
(dp1978
g4
I938196000
sg5
S'Salary for Andy'
p1979
sg7
(lp1980
(S'MyCo.Capital.PL.Expenses.Wages'
I3000
Ntp1981
a(g9
I-3000
Ntp1982
asba(itransac
Transaction
p1983
(dp1984
g4
I938210400
sg5
S'Salary for Richard'
p1985
sg7
(lp1986
(S'MyCo.Capital.PL.Expenses.Wages'
I3000
Ntp1987
a(g9
I-3000
Ntp1988
asba(itransac
Transaction
p1989
(dp1990
g4
I938214000
sg5
S'Bill paid - Contractor'
p1991
sg7
(lp1992
(g136
F1762.5
Ntp1993
a(g9
F-1762.5
Ntp1994
asba(itransac
Transaction
p1995
(dp1996
g4
I938300400
sg5
g45
sg7
(lp1997
(S'MyCo.Capital.PL.Expenses.Utilities'
I70
Ntp1998
a(g9
I-70
Ntp1999
asba(itransac
Transaction
p2000
(dp2001
g4
I938559600
sg5
S'Bill received - Contractor'
p2002
sg7
(lp2003
(S'MyCo.Capital.PL.Expenses.Contractors'
I1500
Ntp2004
a(g32
F262.5
Ntp2005
a(g136
F-1762.5
Ntp2006
asba(itransac
Transaction
p2007
(dp2008
g4
I938559600
sg5
g45
sg7
(lp2009
(S'MyCo.Capital.PL.Expenses.Utilities'
I70
Ntp2010
a(g9
I-70
Ntp2011
asba(itransac
Transaction
p2012
(dp2013
g4
I938559600
sg5
g45
sg7
(lp2014
(S'MyCo.Capital.PL.Expenses.Utilities'
I46
Ntp2015
a(g9
I-46
Ntp2016
asba(itransac
Transaction
p2017
(dp2018
g4
I938559600
sg5
g45
sg7
(lp2019
(S'MyCo.Capital.PL.Expenses.Stationery'
I33
Ntp2020
a(g9
I-33
Ntp2021
asba(itransac
Transaction
p2022
(dp2023
g4
I938732400
sg5
g45
sg7
(lp2024
(S'MyCo.Capital.PL.Expenses.Labour'
I51
Ntp2025
a(g9
I-51
Ntp2026
asba(itransac
Transaction
p2027
(dp2028
g4
I938808000
sg5
g22
sg7
(lp2029
(g18
I4500
Ntp2030
a(g9
I-4500
Ntp2031
asba(itransac
Transaction
p2032
(dp2033
g4
I938818800
sg5
S'Bill paid - Contractor'
p2034
sg7
(lp2035
(g136
F1762.5
Ntp2036
a(g9
F-1762.5
Ntp2037
asba(itransac
Transaction
p2038
(dp2039
g4
I938876400
sg5
S'Cash Sale - Product Sales for month'
p2040
sg7
(lp2041
(S'MyCo.Capital.PL.Income.Software'
I-5000
Ntp2042
a(g32
F-875
Ntp2043
a(g9
F5875
Ntp2044
asba(itransac
Transaction
p2045
(dp2046
g4
I938959200
sg5
g15
sg7
(lp2047
(S'MyCo.Capital.PL.Expenses.Rent'
I1500
Ntp2048
a(g18
I-1500
Ntp2049
asba(itransac
Transaction
p2050
(dp2051
g4
I938959200
sg5
g28
sg7
(lp2052
(g30
F568
Ntp2053
a(g32
F99.399999999999991
Ntp2054
a(g9
F-667.39999999999998
Ntp2055
asba(itransac
Transaction
p2056
(dp2057
g4
I938959200
sg5
g37
sg7
(lp2058
(g39
F1200
Ntp2059
a(g32
F210
Ntp2060
a(g9
F-1410
Ntp2061
asba(itransac
Transaction
p2062
(dp2063
g4
I938962800
sg5
g444
sg7
(lp2064
(g9
F-461.44999999999999
Ntp2065
a(g232
F400.74000000000001
Ntp2066
a(g448
F60.710000000000001
Ntp2067
asba(itransac
Transaction
p2068
(dp2069
g4
I938991600
sg5
g45
sg7
(lp2070
(S'MyCo.Capital.PL.Expenses.Labour'
I96
Ntp2071
a(g9
I-96
Ntp2072
asba(itransac
Transaction
p2073
(dp2074
g4
I939078000
sg5
g45
sg7
(lp2075
(S'MyCo.Capital.PL.Expenses.Rent'
I68
Ntp2076
a(g9
I-68
Ntp2077
asba(itransac
Transaction
p2078
(dp2079
g4
I939164400
sg5
S'Bill received - Contractor'
p2080
sg7
(lp2081
(S'MyCo.Capital.PL.Expenses.Contractors'
I1500
Ntp2082
a(g32
F262.5
Ntp2083
a(g136
F-1762.5
Ntp2084
asba(itransac
Transaction
p2085
(dp2086
g4
I939164400
sg5
g45
sg7
(lp2087
(S'MyCo.Capital.PL.Expenses.Stationery'
I87
Ntp2088
a(g9
I-87
Ntp2089
asba(itransac
Transaction
p2090
(dp2091
g4
I939164400
sg5
g45
sg7
(lp2092
(S'MyCo.Capital.PL.Expenses.Rent'
I17
Ntp2093
a(g9
I-17
Ntp2094
asba(itransac
Transaction
p2095
(dp2096
g4
I939250800
sg5
g45
sg7
(lp2097
(S'MyCo.Capital.PL.Expenses.Travel'
I75
Ntp2098
a(g9
I-75
Ntp2099
asba(itransac
Transaction
p2100
(dp2101
g4
I939391200
sg5
S'Bill raised - Consulting to 2-Oct-1999 15: 0: 0'
p2102
sg7
(lp2103
(S'MyCo.Capital.PL.Income.Consulting'
I-19600
Ntp2104
a(g32
F-3430
Ntp2105
a(g256
F23030
Ntp2106
asba(itransac
Transaction
p2107
(dp2108
g4
I939423600
sg5
S'Bill paid - Contractor'
p2109
sg7
(lp2110
(g136
F1762.5
Ntp2111
a(g9
F-1762.5
Ntp2112
asba(itransac
Transaction
p2113
(dp2114
g4
I939423600
sg5
g45
sg7
(lp2115
(S'MyCo.Capital.PL.Expenses.Stationery'
I9
Ntp2116
a(g9
I-9
Ntp2117
asba(itransac
Transaction
p2118
(dp2119
g4
I939510000
sg5
g45
sg7
(lp2120
(S'MyCo.Capital.PL.Expenses.Labour'
I7
Ntp2121
a(g9
I-7
Ntp2122
asba(itransac
Transaction
p2123
(dp2124
g4
I939510000
sg5
g45
sg7
(lp2125
(S'MyCo.Capital.PL.Expenses.Stationery'
I12
Ntp2126
a(g9
I-12
Ntp2127
asba(itransac
Transaction
p2128
(dp2129
g4
I939596400
sg5
g45
sg7
(lp2130
(S'MyCo.Capital.PL.Expenses.Rent'
I47
Ntp2131
a(g9
I-47
Ntp2132
asba(itransac
Transaction
p2133
(dp2134
g4
I939596400
sg5
g45
sg7
(lp2135
(S'MyCo.Capital.PL.Expenses.Labour'
I21
Ntp2136
a(g9
I-21
Ntp2137
asba(itransac
Transaction
p2138
(dp2139
g4
I939596400
sg5
g45
sg7
(lp2140
(S'MyCo.Capital.PL.Expenses.Rent'
I17
Ntp2141
a(g9
I-17
Ntp2142
asba(itransac
Transaction
p2143
(dp2144
g4
I939682800
sg5
g45
sg7
(lp2145
(S'MyCo.Capital.PL.Expenses.Rent'
I92
Ntp2146
a(g9
I-92
Ntp2147
asba(itransac
Transaction
p2148
(dp2149
g4
I939769200
sg5
S'Bill received - Contractor'
p2150
sg7
(lp2151
(S'MyCo.Capital.PL.Expenses.Contractors'
I1500
Ntp2152
a(g32
F262.5
Ntp2153
a(g136
F-1762.5
Ntp2154
asba(itransac
Transaction
p2155
(dp2156
g4
I939769200
sg5
g45
sg7
(lp2157
(S'MyCo.Capital.PL.Expenses.Utilities'
I18
Ntp2158
a(g9
I-18
Ntp2159
asba(itransac
Transaction
p2160
(dp2161
g4
I939826800
sg5
S'Payment received - Consulting to 2-Sep-1999 16: 0: 0'
p2162
sg7
(lp2163
(g256
F-21855
Ntp2164
a(g9
F21855
Ntp2165
asba(itransac
Transaction
p2166
(dp2167
g4
I939942000
sg5
g45
sg7
(lp2168
(S'MyCo.Capital.PL.Expenses.Utilities'
I96
Ntp2169
a(g9
I-96
Ntp2170
asba(itransac
Transaction
p2171
(dp2172
g4
I939942000
sg5
g45
sg7
(lp2173
(S'MyCo.Capital.PL.Expenses.Travel'
I60
Ntp2174
a(g9
I-60
Ntp2175
asba(itransac
Transaction
p2176
(dp2177
g4
I940028400
sg5
S'Bill paid - Contractor'
p2178
sg7
(lp2179
(g136
F1762.5
Ntp2180
a(g9
F-1762.5
Ntp2181
asba(itransac
Transaction
p2182
(dp2183
g4
I940028400
sg5
g45
sg7
(lp2184
(S'MyCo.Capital.PL.Expenses.Labour'
I37
Ntp2185
a(g9
I-37
Ntp2186
asba(itransac
Transaction
p2187
(dp2188
g4
I940028400
sg5
g45
sg7
(lp2189
(S'MyCo.Capital.PL.Expenses.Utilities'
I29
Ntp2190
a(g9
I-29
Ntp2191
asba(itransac
Transaction
p2192
(dp2193
g4
I940028400
sg5
g45
sg7
(lp2194
(S'MyCo.Capital.PL.Expenses.Rent'
I25
Ntp2195
a(g9
I-25
Ntp2196
asba(itransac
Transaction
p2197
(dp2198
g4
I940028400
sg5
g45
sg7
(lp2199
(S'MyCo.Capital.PL.Expenses.Stationery'
I8
Ntp2200
a(g9
I-8
Ntp2201
asba(itransac
Transaction
p2202
(dp2203
g4
I940086000
sg5
g302
sg7
(lp2204
(g9
F-1762.5
Ntp2205
a(g136
F1762.5
Ntp2206
asba(itransac
Transaction
p2207
(dp2208
g4
I940168800
sg5
g131
sg7
(lp2209
(g133
F1500
Ntp2210
a(g32
F262.5
Ntp2211
a(g136
F-1762.5
Ntp2212
asba(itransac
Transaction
p2213
(dp2214
g4
I940201200
sg5
g45
sg7
(lp2215
(S'MyCo.Capital.PL.Expenses.Rent'
I78
Ntp2216
a(g9
I-78
Ntp2217
asba(itransac
Transaction
p2218
(dp2219
g4
I940201200
sg5
g45
sg7
(lp2220
(S'MyCo.Capital.PL.Expenses.Travel'
I75
Ntp2221
a(g9
I-75
Ntp2222
asba(itransac
Transaction
p2223
(dp2224
g4
I940374000
sg5
S'Bill received - Contractor'
p2225
sg7
(lp2226
(S'MyCo.Capital.PL.Expenses.Contractors'
I1500
Ntp2227
a(g32
F262.5
Ntp2228
a(g136
F-1762.5
Ntp2229
asba(itransac
Transaction
p2230
(dp2231
g4
I940546800
sg5
g45
sg7
(lp2232
(S'MyCo.Capital.PL.Expenses.Labour'
I25
Ntp2233
a(g9
I-25
Ntp2234
asba(itransac
Transaction
p2235
(dp2236
g4
I940633200
sg5
S'Bill paid - Contractor'
p2237
sg7
(lp2238
(g136
F1762.5
Ntp2239
a(g9
F-1762.5
Ntp2240
asba(itransac
Transaction
p2241
(dp2242
g4
I940719600
sg5
g45
sg7
(lp2243
(S'MyCo.Capital.PL.Expenses.Stationery'
I63
Ntp2244
a(g9
I-63
Ntp2245
asba(itransac
Transaction
p2246
(dp2247
g4
I940773600
sg5
S'Salary for Roger'
p2248
sg7
(lp2249
(S'MyCo.Capital.PL.Expenses.Wages'
I3000
Ntp2250
a(g9
I-3000
Ntp2251
asba(itransac
Transaction
p2252
(dp2253
g4
I940777200
sg5
S'Salary for Simon'
p2254
sg7
(lp2255
(S'MyCo.Capital.PL.Expenses.Wages'
I2000
Ntp2256
a(g9
I-2000
Ntp2257
asba(itransac
Transaction
p2258
(dp2259
g4
I940777200
sg5
S'Salary for Tim'
p2260
sg7
(lp2261
(S'MyCo.Capital.PL.Expenses.Wages'
I1500
Ntp2262
a(g9
I-1500
Ntp2263
asba(itransac
Transaction
p2264
(dp2265
g4
I940784400
sg5
S'Salary for Andy'
p2266
sg7
(lp2267
(S'MyCo.Capital.PL.Expenses.Wages'
I3000
Ntp2268
a(g9
I-3000
Ntp2269
asba(itransac
Transaction
p2270
(dp2271
g4
I940798800
sg5
S'Salary for Richard'
p2272
sg7
(lp2273
(S'MyCo.Capital.PL.Expenses.Wages'
I3000
Ntp2274
a(g9
I-3000
Ntp2275
asba(itransac
Transaction
p2276
(dp2277
g4
I940978800
sg5
S'Bill received - Contractor'
p2278
sg7
(lp2279
(S'MyCo.Capital.PL.Expenses.Contractors'
I1500
Ntp2280
a(g32
F262.5
Ntp2281
a(g136
F-1762.5
Ntp2282
asba(itransac
Transaction
p2283
(dp2284
g4
I941065200
sg5
g45
sg7
(lp2285
(S'MyCo.Capital.PL.Expenses.Rent'
I41
Ntp2286
a(g9
I-41
Ntp2287
asba(itransac
Transaction
p2288
(dp2289
g4
I941151600
sg5
g45
sg7
(lp2290
(S'MyCo.Capital.PL.Expenses.Travel'
I56
Ntp2291
a(g9
I-56
Ntp2292
asba(itransac
Transaction
p2293
(dp2294
g4
I941238000
sg5
S'Bill paid - Contractor'
p2295
sg7
(lp2296
(g136
F1762.5
Ntp2297
a(g9
F-1762.5
Ntp2298
asba(itransac
Transaction
p2299
(dp2300
g4
I941238000
sg5
g45
sg7
(lp2301
(S'MyCo.Capital.PL.Expenses.Rent'
I98
Ntp2302
a(g9
I-98
Ntp2303
asba(itransac
Transaction
p2304
(dp2305
g4
I941410800
sg5
g45
sg7
(lp2306
(S'MyCo.Capital.PL.Expenses.Travel'
I94
Ntp2307
a(g9
I-94
Ntp2308
asba(itransac
Transaction
p2309
(dp2310
g4
I941551200
sg5
S'Cash Sale - Product Sales for month'
p2311
sg7
(lp2312
(S'MyCo.Capital.PL.Income.Software'
I-5500
Ntp2313
a(g32
F-962.49999999999989
Ntp2314
a(g9
F6462.5
Ntp2315
asba(itransac
Transaction
p2316
(dp2317
g4
I941583600
sg5
S'Bill received - Contractor'
p2318
sg7
(lp2319
(S'MyCo.Capital.PL.Expenses.Contractors'
I1500
Ntp2320
a(g32
F262.5
Ntp2321
a(g136
F-1762.5
Ntp2322
asba(itransac
Transaction
p2323
(dp2324
g4
I941634000
sg5
g15
sg7
(lp2325
(S'MyCo.Capital.PL.Expenses.Rent'
I1500
Ntp2326
a(g18
I-1500
Ntp2327
asba(itransac
Transaction
p2328
(dp2329
g4
I941634000
sg5
g28
sg7
(lp2330
(g30
F472
Ntp2331
a(g32
F82.599999999999994
Ntp2332
a(g9
F-554.60000000000002
Ntp2333
asba(itransac
Transaction
p2334
(dp2335
g4
I941634000
sg5
g37
sg7
(lp2336
(g39
F1200
Ntp2337
a(g32
F210
Ntp2338
a(g9
F-1410
Ntp2339
asba(itransac
Transaction
p2340
(dp2341
g4
I941637600
sg5
g444
sg7
(lp2342
(g9
F-461.44999999999999
Ntp2343
a(g232
F404.07999999999998
Ntp2344
a(g448
F57.370000000000005
Ntp2345
asba(itransac
Transaction
p2346
(dp2347
g4
I941670000
sg5
g45
sg7
(lp2348
(S'MyCo.Capital.PL.Expenses.Travel'
I25
Ntp2349
a(g9
I-25
Ntp2350
asba(itransac
Transaction
p2351
(dp2352
g4
I941670000
sg5
g45
sg7
(lp2353
(S'MyCo.Capital.PL.Expenses.Travel'
I85
Ntp2354
a(g9
I-85
Ntp2355
asba(itransac
Transaction
p2356
(dp2357
g4
I941842800
sg5
S'Bill paid - Contractor'
p2358
sg7
(lp2359
(g136
F1762.5
Ntp2360
a(g9
F-1762.5
Ntp2361
asba(itransac
Transaction
p2362
(dp2363
g4
I941929200
sg5
g45
sg7
(lp2364
(S'MyCo.Capital.PL.Expenses.Travel'
I14
Ntp2365
a(g9
I-14
Ntp2366
asba(itransac
Transaction
p2367
(dp2368
g4
I941929200
sg5
g45
sg7
(lp2369
(S'MyCo.Capital.PL.Expenses.Stationery'
I26
Ntp2370
a(g9
I-26
Ntp2371
asba(itransac
Transaction
p2372
(dp2373
g4
I941929200
sg5
g45
sg7
(lp2374
(S'MyCo.Capital.PL.Expenses.Rent'
I67
Ntp2375
a(g9
I-67
Ntp2376
asba(itransac
Transaction
p2377
(dp2378
g4
I941929200
sg5
g45
sg7
(lp2379
(S'MyCo.Capital.PL.Expenses.Labour'
I57
Ntp2380
a(g9
I-57
Ntp2381
asba(itransac
Transaction
p2382
(dp2383
g4
I942066000
sg5
S'Bill raised - Consulting to 2-Nov-1999 14: 0: 0'
p2384
sg7
(lp2385
(S'MyCo.Capital.PL.Income.Consulting'
I-20600
Ntp2386
a(g32
F-3604.9999999999995
Ntp2387
a(g256
F24205
Ntp2388
asba(itransac
Transaction
p2389
(dp2390
g4
I942102000
sg5
g45
sg7
(lp2391
(S'MyCo.Capital.PL.Expenses.Travel'
I24
Ntp2392
a(g9
I-24
Ntp2393
asba(itransac
Transaction
p2394
(dp2395
g4
I942102000
sg5
g45
sg7
(lp2396
(S'MyCo.Capital.PL.Expenses.Utilities'
I3
Ntp2397
a(g9
I-3
Ntp2398
asba(itransac
Transaction
p2399
(dp2400
g4
I942188400
sg5
S'Bill received - Contractor'
p2401
sg7
(lp2402
(S'MyCo.Capital.PL.Expenses.Contractors'
I1500
Ntp2403
a(g32
F262.5
Ntp2404
a(g136
F-1762.5
Ntp2405
asba(itransac
Transaction
p2406
(dp2407
g4
I942188400
sg5
g45
sg7
(lp2408
(S'MyCo.Capital.PL.Expenses.Stationery'
I57
Ntp2409
a(g9
I-57
Ntp2410
asba(itransac
Transaction
p2411
(dp2412
g4
I942415200
sg5
S'Payment received - Consulting to 2-Oct-1999 15: 0: 0'
p2413
sg7
(lp2414
(g256
F-23030
Ntp2415
a(g9
F23030
Ntp2416
asba(itransac
Transaction
p2417
(dp2418
g4
I942447600
sg5
S'Bill paid - Contractor'
p2419
sg7
(lp2420
(g136
F1762.5
Ntp2421
a(g9
F-1762.5
Ntp2422
asba(itransac
Transaction
p2423
(dp2424
g4
I942447600
sg5
g45
sg7
(lp2425
(S'MyCo.Capital.PL.Expenses.Rent'
I60
Ntp2426
a(g9
I-60
Ntp2427
asba(itransac
Transaction
p2428
(dp2429
g4
I942534000
sg5
g45
sg7
(lp2430
(S'MyCo.Capital.PL.Expenses.Rent'
I94
Ntp2431
a(g9
I-94
Ntp2432
asba(itransac
Transaction
p2433
(dp2434
g4
I942534000
sg5
g45
sg7
(lp2435
(S'MyCo.Capital.PL.Expenses.Utilities'
I93
Ntp2436
a(g9
I-93
Ntp2437
asba(itransac
Transaction
p2438
(dp2439
g4
I942620400
sg5
g45
sg7
(lp2440
(S'MyCo.Capital.PL.Expenses.Travel'
I78
Ntp2441
a(g9
I-78
Ntp2442
asba(itransac
Transaction
p2443
(dp2444
g4
I942760800
sg5
g302
sg7
(lp2445
(g9
F-1762.5
Ntp2446
a(g136
F1762.5
Ntp2447
asba(itransac
Transaction
p2448
(dp2449
g4
I942793200
sg5
S'Bill received - Contractor'
p2450
sg7
(lp2451
(S'MyCo.Capital.PL.Expenses.Contractors'
I1500
Ntp2452
a(g32
F262.5
Ntp2453
a(g136
F-1762.5
Ntp2454
asba(itransac
Transaction
p2455
(dp2456
g4
I942843600
sg5
g131
sg7
(lp2457
(g133
F1500
Ntp2458
a(g32
F262.5
Ntp2459
a(g136
F-1762.5
Ntp2460
asba(itransac
Transaction
p2461
(dp2462
g4
I943052400
sg5
S'Bill paid - Contractor'
p2463
sg7
(lp2464
(g136
F1762.5
Ntp2465
a(g9
F-1762.5
Ntp2466
asba(itransac
Transaction
p2467
(dp2468
g4
I943311600
sg5
g45
sg7
(lp2469
(S'MyCo.Capital.PL.Expenses.Rent'
I77
Ntp2470
a(g9
I-77
Ntp2471
asba(itransac
Transaction
p2472
(dp2473
g4
I943398000
sg5
S'Bill received - Contractor'
p2474
sg7
(lp2475
(S'MyCo.Capital.PL.Expenses.Contractors'
I1500
Ntp2476
a(g32
F262.5
Ntp2477
a(g136
F-1762.5
Ntp2478
asba(itransac
Transaction
p2479
(dp2480
g4
I943448400
sg5
S'Salary for Roger'
p2481
sg7
(lp2482
(S'MyCo.Capital.PL.Expenses.Wages'
I3000
Ntp2483
a(g9
I-3000
Ntp2484
asba(itransac
Transaction
p2485
(dp2486
g4
I943452000
sg5
S'Salary for Simon'
p2487
sg7
(lp2488
(S'MyCo.Capital.PL.Expenses.Wages'
I2000
Ntp2489
a(g9
I-2000
Ntp2490
asba(itransac
Transaction
p2491
(dp2492
g4
I943452000
sg5
S'Salary for Tim'
p2493
sg7
(lp2494
(S'MyCo.Capital.PL.Expenses.Wages'
I1500
Ntp2495
a(g9
I-1500
Ntp2496
asba(itransac
Transaction
p2497
(dp2498
g4
I943459200
sg5
S'Salary for Andy'
p2499
sg7
(lp2500
(S'MyCo.Capital.PL.Expenses.Wages'
I3000
Ntp2501
a(g9
I-3000
Ntp2502
asba(itransac
Transaction
p2503
(dp2504
g4
I943473600
sg5
S'Salary for Richard'
p2505
sg7
(lp2506
(S'MyCo.Capital.PL.Expenses.Wages'
I3000
Ntp2507
a(g9
I-3000
Ntp2508
asba(itransac
Transaction
p2509
(dp2510
g4
I943484400
sg5
g45
sg7
(lp2511
(S'MyCo.Capital.PL.Expenses.Travel'
I52
Ntp2512
a(g9
I-52
Ntp2513
asba(itransac
Transaction
p2514
(dp2515
g4
I943484400
sg5
g45
sg7
(lp2516
(S'MyCo.Capital.PL.Expenses.Stationery'
I8
Ntp2517
a(g9
I-8
Ntp2518
asba(itransac
Transaction
p2519
(dp2520
g4
I943570800
sg5
g45
sg7
(lp2521
(S'MyCo.Capital.PL.Expenses.Labour'
I74
Ntp2522
a(g9
I-74
Ntp2523
asba(itransac
Transaction
p2524
(dp2525
g4
I943657200
sg5
S'Bill paid - Contractor'
p2526
sg7
(lp2527
(g136
F1762.5
Ntp2528
a(g9
F-1762.5
Ntp2529
asba(itransac
Transaction
p2530
(dp2531
g4
I943830000
sg5
g45
sg7
(lp2532
(S'MyCo.Capital.PL.Expenses.Stationery'
I72
Ntp2533
a(g9
I-72
Ntp2534
asba(itransac
Transaction
p2535
(dp2536
g4
I944002800
sg5
S'Bill received - Contractor'
p2537
sg7
(lp2538
(S'MyCo.Capital.PL.Expenses.Contractors'
I1500
Ntp2539
a(g32
F262.5
Ntp2540
a(g136
F-1762.5
Ntp2541
asba(itransac
Transaction
p2542
(dp2543
g4
I944002800
sg5
g45
sg7
(lp2544
(S'MyCo.Capital.PL.Expenses.Rent'
I87
Ntp2545
a(g9
I-87
Ntp2546
asba(itransac
Transaction
p2547
(dp2548
g4
I944139600
sg5
S'Cash Sale - Product Sales for month'
p2549
sg7
(lp2550
(S'MyCo.Capital.PL.Income.Software'
I-6050
Ntp2551
a(g32
F-1058.75
Ntp2552
a(g9
F7108.75
Ntp2553
asba(itransac
Transaction
p2554
(dp2555
g4
I944222400
sg5
g15
sg7
(lp2556
(S'MyCo.Capital.PL.Expenses.Rent'
I1500
Ntp2557
a(g18
I-1500
Ntp2558
asba(itransac
Transaction
p2559
(dp2560
g4
I944222400
sg5
g28
sg7
(lp2561
(g30
F434
Ntp2562
a(g32
F75.949999999999989
Ntp2563
a(g9
F-509.95000000000005
Ntp2564
asba(itransac
Transaction
p2565
(dp2566
g4
I944222400
sg5
g37
sg7
(lp2567
(g39
F1200
Ntp2568
a(g32
F210
Ntp2569
a(g9
F-1410
Ntp2570
asba(itransac
Transaction
p2571
(dp2572
g4
I944226000
sg5
g444
sg7
(lp2573
(g9
F-461.44999999999999
Ntp2574
a(g232
F407.44
Ntp2575
a(g448
F54.009999999999998
Ntp2576
asba(itransac
Transaction
p2577
(dp2578
g4
I944262000
sg5
S'Bill paid - Contractor'
p2579
sg7
(lp2580
(g136
F1762.5
Ntp2581
a(g9
F-1762.5
Ntp2582
asba(itransac
Transaction
p2583
(dp2584
g4
I944434800
sg5
g45
sg7
(lp2585
(S'MyCo.Capital.PL.Expenses.Utilities'
I15
Ntp2586
a(g9
I-15
Ntp2587
asba(itransac
Transaction
p2588
(dp2589
g4
I944607600
sg5
S'Bill received - Contractor'
p2590
sg7
(lp2591
(S'MyCo.Capital.PL.Expenses.Contractors'
I1500
Ntp2592
a(g32
F262.5
Ntp2593
a(g136
F-1762.5
Ntp2594
asba(itransac
Transaction
p2595
(dp2596
g4
I944607600
sg5
g45
sg7
(lp2597
(S'MyCo.Capital.PL.Expenses.Travel'
I96
Ntp2598
a(g9
I-96
Ntp2599
asba(itransac
Transaction
p2600
(dp2601
g4
I944654400
sg5
S'Bill raised - Consulting to 2-Dec-1999 13: 0: 0'
p2602
sg7
(lp2603
(S'MyCo.Capital.PL.Income.Consulting'
I-21600
Ntp2604
a(g32
F-3779.9999999999995
Ntp2605
a(g256
F25380
Ntp2606
asba(itransac
Transaction
p2607
(dp2608
g4
I944866800
sg5
S'Bill paid - Contractor'
p2609
sg7
(lp2610
(g136
F1762.5
Ntp2611
a(g9
F-1762.5
Ntp2612
asba(itransac
Transaction
p2613
(dp2614
g4
I945039600
sg5
g45
sg7
(lp2615
(S'MyCo.Capital.PL.Expenses.Utilities'
I8
Ntp2616
a(g9
I-8
Ntp2617
asba(itransac
Transaction
p2618
(dp2619
g4
I945039600
sg5
g45
sg7
(lp2620
(S'MyCo.Capital.PL.Expenses.Stationery'
I54
Ntp2621
a(g9
I-54
Ntp2622
asba(itransac
Transaction
p2623
(dp2624
g4
I945090000
sg5
S'Payment received - Consulting to 2-Nov-1999 14: 0: 0'
p2625
sg7
(lp2626
(g256
F-24205
Ntp2627
a(g9
F24205
Ntp2628
asba(itransac
Transaction
p2629
(dp2630
g4
I945212400
sg5
S'Bill received - Contractor'
p2631
sg7
(lp2632
(S'MyCo.Capital.PL.Expenses.Contractors'
I1500
Ntp2633
a(g32
F262.5
Ntp2634
a(g136
F-1762.5
Ntp2635
asba(itransac
Transaction
p2636
(dp2637
g4
I945298800
sg5
g45
sg7
(lp2638
(S'MyCo.Capital.PL.Expenses.Rent'
I43
Ntp2639
a(g9
I-43
Ntp2640
asba(itransac
Transaction
p2641
(dp2642
g4
I945349200
sg5
g302
sg7
(lp2643
(g9
F-1762.5
Ntp2644
a(g136
F1762.5
Ntp2645
asba(itransac
Transaction
p2646
(dp2647
g4
I945385200
sg5
g45
sg7
(lp2648
(S'MyCo.Capital.PL.Expenses.Stationery'
I62
Ntp2649
a(g9
I-62
Ntp2650
asba(itransac
Transaction
p2651
(dp2652
g4
I945432000
sg5
g131
sg7
(lp2653
(g133
F1500
Ntp2654
a(g32
F262.5
Ntp2655
a(g136
F-1762.5
Ntp2656
asba(itransac
Transaction
p2657
(dp2658
g4
I945471600
sg5
S'Bill paid - Contractor'
p2659
sg7
(lp2660
(g136
F1762.5
Ntp2661
a(g9
F-1762.5
Ntp2662
asba(itransac
Transaction
p2663
(dp2664
g4
I945471600
sg5
g45
sg7
(lp2665
(S'MyCo.Capital.PL.Expenses.Travel'
I23
Ntp2666
a(g9
I-23
Ntp2667
asba(itransac
Transaction
p2668
(dp2669
g4
I945558000
sg5
g45
sg7
(lp2670
(S'MyCo.Capital.PL.Expenses.Stationery'
I27
Ntp2671
a(g9
I-27
Ntp2672
asba(itransac
Transaction
p2673
(dp2674
g4
I945558000
sg5
g45
sg7
(lp2675
(S'MyCo.Capital.PL.Expenses.Travel'
I62
Ntp2676
a(g9
I-62
Ntp2677
asba(itransac
Transaction
p2678
(dp2679
g4
I945644400
sg5
g45
sg7
(lp2680
(S'MyCo.Capital.PL.Expenses.Labour'
I95
Ntp2681
a(g9
I-95
Ntp2682
asba(itransac
Transaction
p2683
(dp2684
g4
I945644400
sg5
g45
sg7
(lp2685
(S'MyCo.Capital.PL.Expenses.Rent'
I41
Ntp2686
a(g9
I-41
Ntp2687
asba(itransac
Transaction
p2688
(dp2689
g4
I945730800
sg5
g45
sg7
(lp2690
(S'MyCo.Capital.PL.Expenses.Travel'
I37
Ntp2691
a(g9
I-37
Ntp2692
asba(itransac
Transaction
p2693
(dp2694
g4
I945817200
sg5
S'Bill received - Contractor'
p2695
sg7
(lp2696
(S'MyCo.Capital.PL.Expenses.Contractors'
I1500
Ntp2697
a(g32
F262.5
Ntp2698
a(g136
F-1762.5
Ntp2699
asba(itransac
Transaction
p2700
(dp2701
g4
I945903600
sg5
g45
sg7
(lp2702
(S'MyCo.Capital.PL.Expenses.Rent'
I40
Ntp2703
a(g9
I-40
Ntp2704
asba(itransac
Transaction
p2705
(dp2706
g4
I945990000
sg5
g45
sg7
(lp2707
(S'MyCo.Capital.PL.Expenses.Rent'
I80
Ntp2708
a(g9
I-80
Ntp2709
asba(itransac
Transaction
p2710
(dp2711
g4
I946036800
sg5
S'Salary for Roger'
p2712
sg7
(lp2713
(S'MyCo.Capital.PL.Expenses.Wages'
I3000
Ntp2714
a(g9
I-3000
Ntp2715
asba(itransac
Transaction
p2716
(dp2717
g4
I946040400
sg5
S'Salary for Simon'
p2718
sg7
(lp2719
(S'MyCo.Capital.PL.Expenses.Wages'
I2000
Ntp2720
a(g9
I-2000
Ntp2721
asba(itransac
Transaction
p2722
(dp2723
g4
I946040400
sg5
S'Salary for Tim'
p2724
sg7
(lp2725
(S'MyCo.Capital.PL.Expenses.Wages'
I1500
Ntp2726
a(g9
I-1500
Ntp2727
asba(itransac
Transaction
p2728
(dp2729
g4
I946047600
sg5
S'Salary for Andy'
p2730
sg7
(lp2731
(S'MyCo.Capital.PL.Expenses.Wages'
I3000
Ntp2732
a(g9
I-3000
Ntp2733
asba(itransac
Transaction
p2734
(dp2735
g4
I946062000
sg5
S'Salary for Richard'
p2736
sg7
(lp2737
(S'MyCo.Capital.PL.Expenses.Wages'
I3000
Ntp2738
a(g9
I-3000
Ntp2739
asba(itransac
Transaction
p2740
(dp2741
g4
I946076400
sg5
S'Bill paid - Contractor'
p2742
sg7
(lp2743
(g136
F1762.5
Ntp2744
a(g9
F-1762.5
Ntp2745
asba(itransac
Transaction
p2746
(dp2747
g4
I946076400
sg5
g45
sg7
(lp2748
(S'MyCo.Capital.PL.Expenses.Stationery'
I97
Ntp2749
a(g9
I-97
Ntp2750
asba(itransac
Transaction
p2751
(dp2752
g4
I946162800
sg5
g45
sg7
(lp2753
(S'MyCo.Capital.PL.Expenses.Stationery'
I42
Ntp2754
a(g9
I-42
Ntp2755
asba(itransac
Transaction
p2756
(dp2757
g4
I946249200
sg5
g45
sg7
(lp2758
(S'MyCo.Capital.PL.Expenses.Stationery'
I52
Ntp2759
a(g9
I-52
Ntp2760
asba(itransac
Transaction
p2761
(dp2762
g4
I946249200
sg5
g45
sg7
(lp2763
(S'MyCo.Capital.PL.Expenses.Rent'
I26
Ntp2764
a(g9
I-26
Ntp2765
asba(itransac
Transaction
p2766
(dp2767
g4
I946335600
sg5
g45
sg7
(lp2768
(S'MyCo.Capital.PL.Expenses.Travel'
I88
Ntp2769
a(g9
I-88
Ntp2770
asba(itransac
Transaction
p2771
(dp2772
g4
I946335600
sg5
g45
sg7
(lp2773
(S'MyCo.Capital.PL.Expenses.Stationery'
I86
Ntp2774
a(g9
I-86
Ntp2775
asba(itransac
Transaction
p2776
(dp2777
g4
I946422000
sg5
S'Bill received - Contractor'
p2778
sg7
(lp2779
(S'MyCo.Capital.PL.Expenses.Contractors'
I1500
Ntp2780
a(g32
F262.5
Ntp2781
a(g136
F-1762.5
Ntp2782
asba(itransac
Transaction
p2783
(dp2784
g4
I946422000
sg5
g45
sg7
(lp2785
(S'MyCo.Capital.PL.Expenses.Rent'
I72
Ntp2786
a(g9
I-72
Ntp2787
asba(itransac
Transaction
p2788
(dp2789
g4
I946508400
sg5
g45
sg7
(lp2790
(S'MyCo.Capital.PL.Expenses.Travel'
I97
Ntp2791
a(g9
I-97
Ntp2792
asba(itransac
Transaction
p2793
(dp2794
g4
I946681200
sg5
S'Bill paid - Contractor'
p2795
sg7
(lp2796
(g136
F1762.5
Ntp2797
a(g9
F-1762.5
Ntp2798
asba(itransac
Transaction
p2799
(dp2800
g4
I946753200
sg5
g22
sg7
(lp2801
(g18
I4500
Ntp2802
a(g9
I-4500
Ntp2803
asba(itransac
Transaction
p2804
(dp2805
g4
I946767600
sg5
g45
sg7
(lp2806
(S'MyCo.Capital.PL.Expenses.Travel'
I30
Ntp2807
a(g9
I-30
Ntp2808
asba(itransac
Transaction
p2809
(dp2810
g4
I946814400
sg5
S'Cash Sale - Product Sales for month'
p2811
sg7
(lp2812
(S'MyCo.Capital.PL.Income.Software'
I-6655
Ntp2813
a(g32
F-1164.625
Ntp2814
a(g9
F7819.625
Ntp2815
asba(itransac
Transaction
p2816
(dp2817
g4
I946897200
sg5
g15
sg7
(lp2818
(S'MyCo.Capital.PL.Expenses.Rent'
I1500
Ntp2819
a(g18
I-1500
Ntp2820
asba(itransac
Transaction
p2821
(dp2822
g4
I946897200
sg5
g28
sg7
(lp2823
(g30
F630
Ntp2824
a(g32
F110.25
Ntp2825
a(g9
F-740.25
Ntp2826
asba(itransac
Transaction
p2827
(dp2828
g4
I946897200
sg5
g37
sg7
(lp2829
(g39
F1200
Ntp2830
a(g32
F210
Ntp2831
a(g9
F-1410
Ntp2832
asba(itransac
Transaction
p2833
(dp2834
g4
I946900800
sg5
g444
sg7
(lp2835
(g9
F-461.44999999999999
Ntp2836
a(g232
F410.83999999999997
Ntp2837
a(g448
F50.609999999999999
Ntp2838
asba(itransac
Transaction
p2839
(dp2840
g4
I947026800
sg5
S'Bill received - Contractor'
p2841
sg7
(lp2842
(S'MyCo.Capital.PL.Expenses.Contractors'
I1500
Ntp2843
a(g32
F262.5
Ntp2844
a(g136
F-1762.5
Ntp2845
asba(itransac
Transaction
p2846
(dp2847
g4
I947199600
sg5
g45
sg7
(lp2848
(S'MyCo.Capital.PL.Expenses.Labour'
I10
Ntp2849
a(g9
I-10
Ntp2850
asba(itransac
Transaction
p2851
(dp2852
g4
I947286000
sg5
S'Bill paid - Contractor'
p2853
sg7
(lp2854
(g136
F1762.5
Ntp2855
a(g9
F-1762.5
Ntp2856
asba(itransac
Transaction
p2857
(dp2858
g4
I947286000
sg5
g45
sg7
(lp2859
(S'MyCo.Capital.PL.Expenses.Stationery'
I15
Ntp2860
a(g9
I-15
Ntp2861
asba(itransac
Transaction
p2862
(dp2863
g4
I947286000
sg5
g45
sg7
(lp2864
(S'MyCo.Capital.PL.Expenses.Rent'
I71
Ntp2865
a(g9
I-71
Ntp2866
asba(itransac
Transaction
p2867
(dp2868
g4
I947329200
sg5
S'Bill raised - Consulting to 2-Jan-2000 12: 0: 0'
p2869
sg7
(lp2870
(S'MyCo.Capital.PL.Income.Consulting'
I-21600
Ntp2871
a(g32
F-3779.9999999999995
Ntp2872
a(g256
F25380
Ntp2873
asba(itransac
Transaction
p2874
(dp2875
g4
I947545200
sg5
g45
sg7
(lp2876
(S'MyCo.Capital.PL.Expenses.Utilities'
I21
Ntp2877
a(g9
I-21
Ntp2878
asba(itransac
Transaction
p2879
(dp2880
g4
I947631600
sg5
S'Bill received - Contractor'
p2881
sg7
(lp2882
(S'MyCo.Capital.PL.Expenses.Contractors'
I1500
Ntp2883
a(g32
F262.5
Ntp2884
a(g136
F-1762.5
Ntp2885
asba(itransac
Transaction
p2886
(dp2887
g4
I947631600
sg5
g45
sg7
(lp2888
(S'MyCo.Capital.PL.Expenses.Travel'
I92
Ntp2889
a(g9
I-92
Ntp2890
asba(itransac
Transaction
p2891
(dp2892
g4
I947678400
sg5
S'Payment received - Consulting to 2-Dec-1999 13: 0: 0'
p2893
sg7
(lp2894
(g256
F-25380
Ntp2895
a(g9
F25380
Ntp2896
asba(itransac
Transaction
p2897
(dp2898
g4
I947890800
sg5
S'Bill paid - Contractor'
p2899
sg7
(lp2900
(g136
F1762.5
Ntp2901
a(g9
F-1762.5
Ntp2902
asba(itransac
Transaction
p2903
(dp2904
g4
I947890800
sg5
g45
sg7
(lp2905
(S'MyCo.Capital.PL.Expenses.Stationery'
I97
Ntp2906
a(g9
I-97
Ntp2907
asba(itransac
Transaction
p2908
(dp2909
g4
I948024000
sg5
g302
sg7
(lp2910
(g9
F-1762.5
Ntp2911
a(g136
F1762.5
Ntp2912
asba(itransac
Transaction
p2913
(dp2914
g4
I948063600
sg5
g45
sg7
(lp2915
(S'MyCo.Capital.PL.Expenses.Travel'
I2
Ntp2916
a(g9
I-2
Ntp2917
asba(itransac
Transaction
p2918
(dp2919
g4
I948106800
sg5
g131
sg7
(lp2920
(g133
F1500
Ntp2921
a(g32
F262.5
Ntp2922
a(g136
F-1762.5
Ntp2923
asba(itransac
Transaction
p2924
(dp2925
g4
I948150000
sg5
g45
sg7
(lp2926
(S'MyCo.Capital.PL.Expenses.Rent'
I96
Ntp2927
a(g9
I-96
Ntp2928
asba(itransac
Transaction
p2929
(dp2930
g4
I948150000
sg5
g45
sg7
(lp2931
(S'MyCo.Capital.PL.Expenses.Stationery'
I43
Ntp2932
a(g9
I-43
Ntp2933
asba(itransac
Transaction
p2934
(dp2935
g4
I948236400
sg5
S'Bill received - Contractor'
p2936
sg7
(lp2937
(S'MyCo.Capital.PL.Expenses.Contractors'
I1500
Ntp2938
a(g32
F262.5
Ntp2939
a(g136
F-1762.5
Ntp2940
asba(itransac
Transaction
p2941
(dp2942
g4
I948322800
sg5
g45
sg7
(lp2943
(S'MyCo.Capital.PL.Expenses.Labour'
I53
Ntp2944
a(g9
I-53
Ntp2945
asba(itransac
Transaction
p2946
(dp2947
g4
I948495600
sg5
S'Bill paid - Contractor'
p2948
sg7
(lp2949
(g136
F1762.5
Ntp2950
a(g9
F-1762.5
Ntp2951
asba(itransac
Transaction
p2952
(dp2953
g4
I948582000
sg5
g45
sg7
(lp2954
(S'MyCo.Capital.PL.Expenses.Travel'
I91
Ntp2955
a(g9
I-91
Ntp2956
asba(itransac
Transaction
p2957
(dp2958
g4
I948668400
sg5
g45
sg7
(lp2959
(S'MyCo.Capital.PL.Expenses.Utilities'
I55
Ntp2960
a(g9
I-55
Ntp2961
asba(itransac
Transaction
p2962
(dp2963
g4
I948711600
sg5
S'Salary for Roger'
p2964
sg7
(lp2965
(S'MyCo.Capital.PL.Expenses.Wages'
I3000
Ntp2966
a(g9
I-3000
Ntp2967
asba(itransac
Transaction
p2968
(dp2969
g4
I948715200
sg5
S'Salary for Simon'
p2970
sg7
(lp2971
(S'MyCo.Capital.PL.Expenses.Wages'
I2000
Ntp2972
a(g9
I-2000
Ntp2973
asba(itransac
Transaction
p2974
(dp2975
g4
I948715200
sg5
S'Salary for Tim'
p2976
sg7
(lp2977
(S'MyCo.Capital.PL.Expenses.Wages'
I1500
Ntp2978
a(g9
I-1500
Ntp2979
asba(itransac
Transaction
p2980
(dp2981
g4
I948722400
sg5
S'Salary for Andy'
p2982
sg7
(lp2983
(S'MyCo.Capital.PL.Expenses.Wages'
I3000
Ntp2984
a(g9
I-3000
Ntp2985
asba(itransac
Transaction
p2986
(dp2987
g4
I948736800
sg5
S'Salary for Richard'
p2988
sg7
(lp2989
(S'MyCo.Capital.PL.Expenses.Wages'
I3000
Ntp2990
a(g9
I-3000
Ntp2991
asba(itransac
Transaction
p2992
(dp2993
g4
I948754800
sg5
g45
sg7
(lp2994
(S'MyCo.Capital.PL.Expenses.Rent'
I70
Ntp2995
a(g9
I-70
Ntp2996
asba(itransac
Transaction
p2997
(dp2998
g4
I948841200
sg5
S'Bill received - Contractor'
p2999
sg7
(lp3000
(S'MyCo.Capital.PL.Expenses.Contractors'
I1500
Ntp3001
a(g32
F262.5
Ntp3002
a(g136
F-1762.5
Ntp3003
asba(itransac
Transaction
p3004
(dp3005
g4
I948841200
sg5
g45
sg7
(lp3006
(S'MyCo.Capital.PL.Expenses.Stationery'
I78
Ntp3007
a(g9
I-78
Ntp3008
asba(itransac
Transaction
p3009
(dp3010
g4
I949014000
sg5
g45
sg7
(lp3011
(S'MyCo.Capital.PL.Expenses.Stationery'
I54
Ntp3012
a(g9
I-54
Ntp3013
asba(itransac
Transaction
p3014
(dp3015
g4
I949100400
sg5
S'Bill paid - Contractor'
p3016
sg7
(lp3017
(g136
F1762.5
Ntp3018
a(g9
F-1762.5
Ntp3019
asba(itransac
Transaction
p3020
(dp3021
g4
I949186800
sg5
g45
sg7
(lp3022
(S'MyCo.Capital.PL.Expenses.Stationery'
I10
Ntp3023
a(g9
I-10
Ntp3024
asba(itransac
Transaction
p3025
(dp3026
g4
I949186800
sg5
g45
sg7
(lp3027
(S'MyCo.Capital.PL.Expenses.Rent'
I87
Ntp3028
a(g9
I-87
Ntp3029
asba(itransac
Transaction
p3030
(dp3031
g4
I949359600
sg5
g45
sg7
(lp3032
(S'MyCo.Capital.PL.Expenses.Rent'
I55
Ntp3033
a(g9
I-55
Ntp3034
asba(itransac
Transaction
p3035
(dp3036
g4
I949446000
sg5
S'Bill received - Contractor'
p3037
sg7
(lp3038
(S'MyCo.Capital.PL.Expenses.Contractors'
I1500
Ntp3039
a(g32
F262.5
Ntp3040
a(g136
F-1762.5
Ntp3041
asba(itransac
Transaction
p3042
(dp3043
g4
I949446000
sg5
g45
sg7
(lp3044
(S'MyCo.Capital.PL.Expenses.Utilities'
I48
Ntp3045
a(g9
I-48
Ntp3046
asba(itransac
Transaction
p3047
(dp3048
g4
I949489200
sg5
S'Cash Sale - Product Sales for month'
p3049
sg7
(lp3050
(S'MyCo.Capital.PL.Income.Software'
F-7320.5
Ntp3051
a(g32
F-1281.0874999999999
Ntp3052
a(g9
F8601.5874999999996
Ntp3053
asba(itransac
Transaction
p3054
(dp3055
g4
I949532400
sg5
g45
sg7
(lp3056
(S'MyCo.Capital.PL.Expenses.Rent'
I47
Ntp3057
a(g9
I-47
Ntp3058
asba(itransac
Transaction
p3059
(dp3060
g4
I949572000
sg5
g15
sg7
(lp3061
(S'MyCo.Capital.PL.Expenses.Rent'
I1500
Ntp3062
a(g18
I-1500
Ntp3063
asba(itransac
Transaction
p3064
(dp3065
g4
I949572000
sg5
g28
sg7
(lp3066
(g30
F570
Ntp3067
a(g32
F99.75
Ntp3068
a(g9
F-669.75
Ntp3069
asba(itransac
Transaction
p3070
(dp3071
g4
I949572000
sg5
g37
sg7
(lp3072
(g39
F1200
Ntp3073
a(g32
F210
Ntp3074
a(g9
F-1410
Ntp3075
asba(itransac
Transaction
p3076
(dp3077
g4
I949575600
sg5
g444
sg7
(lp3078
(g9
F-461.44999999999999
Ntp3079
a(g232
F414.25999999999999
Ntp3080
a(g448
F47.189999999999998
Ntp3081
asba(itransac
Transaction
p3082
(dp3083
g4
I949705200
sg5
S'Bill paid - Contractor'
p3084
sg7
(lp3085
(g136
F1762.5
Ntp3086
a(g9
F-1762.5
Ntp3087
asba(itransac
Transaction
p3088
(dp3089
g4
I949791600
sg5
g45
sg7
(lp3090
(S'MyCo.Capital.PL.Expenses.Utilities'
I64
Ntp3091
a(g9
I-64
Ntp3092
asba(itransac
Transaction
p3093
(dp3094
g4
I949964400
sg5
g45
sg7
(lp3095
(S'MyCo.Capital.PL.Expenses.Labour'
I47
Ntp3096
a(g9
I-47
Ntp3097
asba(itransac
Transaction
p3098
(dp3099
g4
I949964400
sg5
g45
sg7
(lp3100
(S'MyCo.Capital.PL.Expenses.Travel'
I43
Ntp3101
a(g9
I-43
Ntp3102
asba(itransac
Transaction
p3103
(dp3104
g4
I950004000
sg5
S'Bill raised - Consulting to 2-Feb-2000 11: 0: 0'
p3105
sg7
(lp3106
(S'MyCo.Capital.PL.Income.Consulting'
I-21600
Ntp3107
a(g32
F-3779.9999999999995
Ntp3108
a(g256
F25380
Ntp3109
asba(itransac
Transaction
p3110
(dp3111
g4
I950050800
sg5
S'Bill received - Contractor'
p3112
sg7
(lp3113
(S'MyCo.Capital.PL.Expenses.Contractors'
I1500
Ntp3114
a(g32
F262.5
Ntp3115
a(g136
F-1762.5
Ntp3116
asba(itransac
Transaction
p3117
(dp3118
g4
I950137200
sg5
g45
sg7
(lp3119
(S'MyCo.Capital.PL.Expenses.Utilities'
I78
Ntp3120
a(g9
I-78
Ntp3121
asba(itransac
Transaction
p3122
(dp3123
g4
I950137200
sg5
g45
sg7
(lp3124
(S'MyCo.Capital.PL.Expenses.Utilities'
I71
Ntp3125
a(g9
I-71
Ntp3126
asba(itransac
Transaction
p3127
(dp3128
g4
I950310000
sg5
S'Bill paid - Contractor'
p3129
sg7
(lp3130
(g136
F1762.5
Ntp3131
a(g9
F-1762.5
Ntp3132
asba(itransac
Transaction
p3133
(dp3134
g4
I950310000
sg5
g45
sg7
(lp3135
(S'MyCo.Capital.PL.Expenses.Labour'
I74
Ntp3136
a(g9
I-74
Ntp3137
asba(itransac
Transaction
p3138
(dp3139
g4
I950353200
sg5
S'Payment received - Consulting to 2-Jan-2000 12: 0: 0'
p3140
sg7
(lp3141
(g256
F-25380
Ntp3142
a(g9
F25380
Ntp3143
asba(itransac
Transaction
p3144
(dp3145
g4
I950396400
sg5
g45
sg7
(lp3146
(S'MyCo.Capital.PL.Expenses.Utilities'
I20
Ntp3147
a(g9
I-20
Ntp3148
asba(itransac
Transaction
p3149
(dp3150
g4
I950396400
sg5
g45
sg7
(lp3151
(S'MyCo.Capital.PL.Expenses.Rent'
I37
Ntp3152
a(g9
I-37
Ntp3153
asba(itransac
Transaction
p3154
(dp3155
g4
I950655600
sg5
S'Bill received - Contractor'
p3156
sg7
(lp3157
(S'MyCo.Capital.PL.Expenses.Contractors'
I1500
Ntp3158
a(g32
F262.5
Ntp3159
a(g136
F-1762.5
Ntp3160
asba(itransac
Transaction
p3161
(dp3162
g4
I950698800
sg5
g302
sg7
(lp3163
(g9
F-1762.5
Ntp3164
a(g136
F1762.5
Ntp3165
asba(itransac
Transaction
p3166
(dp3167
g4
I950742000
sg5
g45
sg7
(lp3168
(S'MyCo.Capital.PL.Expenses.Stationery'
I10
Ntp3169
a(g9
I-10
Ntp3170
asba(itransac
Transaction
p3171
(dp3172
g4
I950781600
sg5
g131
sg7
(lp3173
(g133
F1500
Ntp3174
a(g32
F262.5
Ntp3175
a(g136
F-1762.5
Ntp3176
asba(itransac
Transaction
p3177
(dp3178
g4
I950914800
sg5
S'Bill paid - Contractor'
p3179
sg7
(lp3180
(g136
F1762.5
Ntp3181
a(g9
F-1762.5
Ntp3182
asba(itransac
Transaction
p3183
(dp3184
g4
I951087600
sg5
g45
sg7
(lp3185
(S'MyCo.Capital.PL.Expenses.Rent'
I61
Ntp3186
a(g9
I-61
Ntp3187
asba(itransac
Transaction
p3188
(dp3189
g4
I951260400
sg5
S'Bill received - Contractor'
p3190
sg7
(lp3191
(S'MyCo.Capital.PL.Expenses.Contractors'
I1500
Ntp3192
a(g32
F262.5
Ntp3193
a(g136
F-1762.5
Ntp3194
asba(itransac
Transaction
p3195
(dp3196
g4
I951346800
sg5
g45
sg7
(lp3197
(S'MyCo.Capital.PL.Expenses.Utilities'
I38
Ntp3198
a(g9
I-38
Ntp3199
asba(itransac
Transaction
p3200
(dp3201
g4
I951386400
sg5
S'Salary for Roger'
p3202
sg7
(lp3203
(S'MyCo.Capital.PL.Expenses.Wages'
I3000
Ntp3204
a(g9
I-3000
Ntp3205
asba(itransac
Transaction
p3206
(dp3207
g4
I951390000
sg5
S'Salary for Simon'
p3208
sg7
(lp3209
(S'MyCo.Capital.PL.Expenses.Wages'
I2000
Ntp3210
a(g9
I-2000
Ntp3211
asba(itransac
Transaction
p3212
(dp3213
g4
I951390000
sg5
S'Salary for Tim'
p3214
sg7
(lp3215
(S'MyCo.Capital.PL.Expenses.Wages'
I1500
Ntp3216
a(g9
I-1500
Ntp3217
asba(itransac
Transaction
p3218
(dp3219
g4
I951397200
sg5
S'Salary for Andy'
p3220
sg7
(lp3221
(S'MyCo.Capital.PL.Expenses.Wages'
I3000
Ntp3222
a(g9
I-3000
Ntp3223
asba(itransac
Transaction
p3224
(dp3225
g4
I951411600
sg5
S'Salary for Richard'
p3226
sg7
(lp3227
(S'MyCo.Capital.PL.Expenses.Wages'
I3000
Ntp3228
a(g9
I-3000
Ntp3229
asba(itransac
Transaction
p3230
(dp3231
g4
I951433200
sg5
g45
sg7
(lp3232
(S'MyCo.Capital.PL.Expenses.Utilities'
I47
Ntp3233
a(g9
I-47
Ntp3234
asba(itransac
Transaction
p3235
(dp3236
g4
I951519600
sg5
S'Bill paid - Contractor'
p3237
sg7
(lp3238
(g136
F1762.5
Ntp3239
a(g9
F-1762.5
Ntp3240
asba(itransac
Transaction
p3241
(dp3242
g4
I951519600
sg5
g45
sg7
(lp3243
(S'MyCo.Capital.PL.Expenses.Rent'
I36
Ntp3244
a(g9
I-36
Ntp3245
asba(itransac
Transaction
p3246
(dp3247
g4
I951606000
sg5
g45
sg7
(lp3248
(S'MyCo.Capital.PL.Expenses.Labour'
I82
Ntp3249
a(g9
I-82
Ntp3250
asba(itransac
Transaction
p3251
(dp3252
g4
I951692400
sg5
g45
sg7
(lp3253
(S'MyCo.Capital.PL.Expenses.Utilities'
I1
Ntp3254
a(g9
I-1
Ntp3255
asba(itransac
Transaction
p3256
(dp3257
g4
I951692400
sg5
g45
sg7
(lp3258
(S'MyCo.Capital.PL.Expenses.Stationery'
I5
Ntp3259
a(g9
I-5
Ntp3260
asba(itransac
Transaction
p3261
(dp3262
g4
I951692400
sg5
g45
sg7
(lp3263
(S'MyCo.Capital.PL.Expenses.Utilities'
I24
Ntp3264
a(g9
I-24
Ntp3265
asba(itransac
Transaction
p3266
(dp3267
g4
I951865200
sg5
S'Bill received - Contractor'
p3268
sg7
(lp3269
(S'MyCo.Capital.PL.Expenses.Contractors'
I1500
Ntp3270
a(g32
F262.5
Ntp3271
a(g136
F-1762.5
Ntp3272
asba(itransac
Transaction
p3273
(dp3274
g4
I951865200
sg5
g45
sg7
(lp3275
(S'MyCo.Capital.PL.Expenses.Stationery'
I14
Ntp3276
a(g9
I-14
Ntp3277
asba(itransac
Transaction
p3278
(dp3279
g4
I951865200
sg5
g45
sg7
(lp3280
(S'MyCo.Capital.PL.Expenses.Stationery'
I35
Ntp3281
a(g9
I-35
Ntp3282
asba(itransac
Transaction
p3283
(dp3284
g4
I951951600
sg5
g45
sg7
(lp3285
(S'MyCo.Capital.PL.Expenses.Utilities'
I41
Ntp3286
a(g9
I-41
Ntp3287
asba(itransac
Transaction
p3288
(dp3289
g4
I951991200
sg5
S'Cash Sale - Product Sales for month'
p3290
sg7
(lp3291
(S'MyCo.Capital.PL.Income.Software'
F-8052.5500000000002
Ntp3292
a(g32
F-1409.19625
Ntp3293
a(g9
F9461.7462500000001
Ntp3294
asba(itransac
Transaction
p3295
(dp3296
g4
I952074000
sg5
g15
sg7
(lp3297
(S'MyCo.Capital.PL.Expenses.Rent'
I1500
Ntp3298
a(g18
I-1500
Ntp3299
asba(itransac
Transaction
p3300
(dp3301
g4
I952074000
sg5
g28
sg7
(lp3302
(g30
F531
Ntp3303
a(g32
F92.924999999999997
Ntp3304
a(g9
F-623.92500000000007
Ntp3305
asba(itransac
Transaction
p3306
(dp3307
g4
I952074000
sg5
g37
sg7
(lp3308
(g39
F1200
Ntp3309
a(g32
F210
Ntp3310
a(g9
F-1410
Ntp3311
asba(itransac
Transaction
p3312
(dp3313
g4
I952077600
sg5
g444
sg7
(lp3314
(g9
F-461.44999999999999
Ntp3315
a(g232
F417.71999999999997
Ntp3316
a(g448
F43.730000000000004
Ntp3317
asba(itransac
Transaction
p3318
(dp3319
g4
I952124400
sg5
S'Bill paid - Contractor'
p3320
sg7
(lp3321
(g136
F1762.5
Ntp3322
a(g9
F-1762.5
Ntp3323
asba(itransac
Transaction
p3324
(dp3325
g4
I952124400
sg5
g45
sg7
(lp3326
(S'MyCo.Capital.PL.Expenses.Rent'
I82
Ntp3327
a(g9
I-82
Ntp3328
asba(itransac
Transaction
p3329
(dp3330
g4
I952210800
sg5
g45
sg7
(lp3331
(S'MyCo.Capital.PL.Expenses.Stationery'
I25
Ntp3332
a(g9
I-25
Ntp3333
asba(itransac
Transaction
p3334
(dp3335
g4
I952383600
sg5
g45
sg7
(lp3336
(S'MyCo.Capital.PL.Expenses.Travel'
I18
Ntp3337
a(g9
I-18
Ntp3338
asba(itransac
Transaction
p3339
(dp3340
g4
I952470000
sg5
S'Bill received - Contractor'
p3341
sg7
(lp3342
(S'MyCo.Capital.PL.Expenses.Contractors'
I1500
Ntp3343
a(g32
F262.5
Ntp3344
a(g136
F-1762.5
Ntp3345
asba(itransac
Transaction
p3346
(dp3347
g4
I952506000
sg5
S'Bill raised - Consulting to 2-Mar-2000 10: 0: 0'
p3348
sg7
(lp3349
(S'MyCo.Capital.PL.Income.Consulting'
I-21600
Ntp3350
a(g32
F-3779.9999999999995
Ntp3351
a(g256
F25380
Ntp3352
asba(itransac
Transaction
p3353
(dp3354
g4
I952642800
sg5
g45
sg7
(lp3355
(S'MyCo.Capital.PL.Expenses.Stationery'
I83
Ntp3356
a(g9
I-83
Ntp3357
asba(itransac
Transaction
p3358
(dp3359
g4
I952642800
sg5
g45
sg7
(lp3360
(S'MyCo.Capital.PL.Expenses.Labour'
I47
Ntp3361
a(g9
I-47
Ntp3362
asba(itransac
Transaction
p3363
(dp3364
g4
I952642800
sg5
g45
sg7
(lp3365
(S'MyCo.Capital.PL.Expenses.Travel'
I93
Ntp3366
a(g9
I-93
Ntp3367
asba(itransac
Transaction
p3368
(dp3369
g4
I952729200
sg5
S'Bill paid - Contractor'
p3370
sg7
(lp3371
(g136
F1762.5
Ntp3372
a(g9
F-1762.5
Ntp3373
asba(itransac
Transaction
p3374
(dp3375
g4
I952815600
sg5
g45
sg7
(lp3376
(S'MyCo.Capital.PL.Expenses.Rent'
I78
Ntp3377
a(g9
I-78
Ntp3378
asba(itransac
Transaction
p3379
(dp3380
g4
I952988400
sg5
g45
sg7
(lp3381
(S'MyCo.Capital.PL.Expenses.Utilities'
I13
Ntp3382
a(g9
I-13
Ntp3383
asba(itransac
Transaction
p3384
(dp3385
g4
I953028000
sg5
S'Payment received - Consulting to 2-Feb-2000 11: 0: 0'
p3386
sg7
(lp3387
(g256
F-25380
Ntp3388
a(g9
F25380
Ntp3389
asba(itransac
Transaction
p3390
(dp3391
g4
I953074800
sg5
S'Bill received - Contractor'
p3392
sg7
(lp3393
(S'MyCo.Capital.PL.Expenses.Contractors'
I1500
Ntp3394
a(g32
F262.5
Ntp3395
a(g136
F-1762.5
Ntp3396
asba(itransac
Transaction
p3397
(dp3398
g4
I953161200
sg5
g45
sg7
(lp3399
(S'MyCo.Capital.PL.Expenses.Labour'
I41
Ntp3400
a(g9
I-41
Ntp3401
asba(itransac
Transaction
p3402
(dp3403
g4
I953200800
sg5
g302
sg7
(lp3404
(g9
F-1762.5
Ntp3405
a(g136
F1762.5
Ntp3406
asba(itransac
Transaction
p3407
(dp3408
g4
I953283600
sg5
g131
sg7
(lp3409
(g133
F1500
Ntp3410
a(g32
F262.5
Ntp3411
a(g136
F-1762.5
Ntp3412
asba(itransac
Transaction
p3413
(dp3414
g4
I953334000
sg5
S'Bill paid - Contractor'
p3415
sg7
(lp3416
(g136
F1762.5
Ntp3417
a(g9
F-1762.5
Ntp3418
asba(itransac
Transaction
p3419
(dp3420
g4
I953334000
sg5
g45
sg7
(lp3421
(S'MyCo.Capital.PL.Expenses.Utilities'
I24
Ntp3422
a(g9
I-24
Ntp3423
asba(itransac
Transaction
p3424
(dp3425
g4
I953506800
sg5
g45
sg7
(lp3426
(S'MyCo.Capital.PL.Expenses.Rent'
I42
Ntp3427
a(g9
I-42
Ntp3428
asba(itransac
Transaction
p3429
(dp3430
g4
I953679600
sg5
S'Bill received - Contractor'
p3431
sg7
(lp3432
(S'MyCo.Capital.PL.Expenses.Contractors'
I1500
Ntp3433
a(g32
F262.5
Ntp3434
a(g136
F-1762.5
Ntp3435
asba(itransac
Transaction
p3436
(dp3437
g4
I953679600
sg5
g45
sg7
(lp3438
(S'MyCo.Capital.PL.Expenses.Labour'
I53
Ntp3439
a(g9
I-53
Ntp3440
asba(itransac
Transaction
p3441
(dp3442
g4
I953766000
sg5
g45
sg7
(lp3443
(S'MyCo.Capital.PL.Expenses.Travel'
I30
Ntp3444
a(g9
I-30
Ntp3445
asba(itransac
Transaction
p3446
(dp3447
g4
I953852400
sg5
g45
sg7
(lp3448
(S'MyCo.Capital.PL.Expenses.Labour'
I3
Ntp3449
a(g9
I-3
Ntp3450
asba(itransac
Transaction
p3451
(dp3452
g4
I953888400
sg5
S'Salary for Roger'
p3453
sg7
(lp3454
(S'MyCo.Capital.PL.Expenses.Wages'
I3000
Ntp3455
a(g9
I-3000
Ntp3456
asba(itransac
Transaction
p3457
(dp3458
g4
I953892000
sg5
S'Salary for Simon'
p3459
sg7
(lp3460
(S'MyCo.Capital.PL.Expenses.Wages'
I2000
Ntp3461
a(g9
I-2000
Ntp3462
asba(itransac
Transaction
p3463
(dp3464
g4
I953892000
sg5
S'Salary for Tim'
p3465
sg7
(lp3466
(S'MyCo.Capital.PL.Expenses.Wages'
I1500
Ntp3467
a(g9
I-1500
Ntp3468
asba(itransac
Transaction
p3469
(dp3470
g4
I953899200
sg5
S'Salary for Andy'
p3471
sg7
(lp3472
(S'MyCo.Capital.PL.Expenses.Wages'
I3000
Ntp3473
a(g9
I-3000
Ntp3474
asba(itransac
Transaction
p3475
(dp3476
g4
I953913600
sg5
S'Salary for Richard'
p3477
sg7
(lp3478
(S'MyCo.Capital.PL.Expenses.Wages'
I3000
Ntp3479
a(g9
I-3000
Ntp3480
asba(itransac
Transaction
p3481
(dp3482
g4
I953938800
sg5
S'Bill paid - Contractor'
p3483
sg7
(lp3484
(g136
F1762.5
Ntp3485
a(g9
F-1762.5
Ntp3486
asba(itransac
Transaction
p3487
(dp3488
g4
I953938800
sg5
g45
sg7
(lp3489
(S'MyCo.Capital.PL.Expenses.Stationery'
I65
Ntp3490
a(g9
I-65
Ntp3491
asba(itransac
Transaction
p3492
(dp3493
g4
I954111600
sg5
g45
sg7
(lp3494
(S'MyCo.Capital.PL.Expenses.Labour'
I51
Ntp3495
a(g9
I-51
Ntp3496
asba(itransac
Transaction
p3497
(dp3498
g4
I954284400
sg5
S'Bill received - Contractor'
p3499
sg7
(lp3500
(S'MyCo.Capital.PL.Expenses.Contractors'
I1500
Ntp3501
a(g32
F262.5
Ntp3502
a(g136
F-1762.5
Ntp3503
asba(itransac
Transaction
p3504
(dp3505
g4
I954370800
sg5
g45
sg7
(lp3506
(S'MyCo.Capital.PL.Expenses.Labour'
I100
Ntp3507
a(g9
I-100
Ntp3508
asba(itransac
Transaction
p3509
(dp3510
g4
I954457200
sg5
g45
sg7
(lp3511
(S'MyCo.Capital.PL.Expenses.Stationery'
I64
Ntp3512
a(g9
I-64
Ntp3513
asba(itransac
Transaction
p3514
(dp3515
g4
I954543600
sg5
S'Bill paid - Contractor'
p3516
sg7
(lp3517
(g136
F1762.5
Ntp3518
a(g9
F-1762.5
Ntp3519
asba(itransac
Transaction
p3520
(dp3521
g4
I954543600
sg5
g45
sg7
(lp3522
(S'MyCo.Capital.PL.Expenses.Labour'
I8
Ntp3523
a(g9
I-8
Ntp3524
asba(itransac
Transaction
p3525
(dp3526
g4
I954612000
sg5
g22
sg7
(lp3527
(g18
I4500
Ntp3528
a(g9
I-4500
Ntp3529
asba(itransac
Transaction
p3530
(dp3531
g4
I954666000
sg5
S'Cash Sale - Product Sales for month'
p3532
sg7
(lp3533
(S'MyCo.Capital.PL.Income.Software'
F-17715.610000000001
Ntp3534
a(g32
F-3100.2317499999999
Ntp3535
a(g9
F20815.84175
Ntp3536
asba(itransac
Transaction
p3537
(dp3538
g4
I954716400
sg5
g45
sg7
(lp3539
(S'MyCo.Capital.PL.Expenses.Travel'
I5
Ntp3540
a(g9
I-5
Ntp3541
asba(itransac
Transaction
p3542
(dp3543
g4
I954716400
sg5
g45
sg7
(lp3544
(S'MyCo.Capital.PL.Expenses.Utilities'
I79
Ntp3545
a(g9
I-79
Ntp3546
asba(itransac
Transaction
p3547
(dp3548
g4
I954748800
sg5
g15
sg7
(lp3549
(S'MyCo.Capital.PL.Expenses.Rent'
I1500
Ntp3550
a(g18
I-1500
Ntp3551
asba(itransac
Transaction
p3552
(dp3553
g4
I954748800
sg5
g28
sg7
(lp3554
(g30
F494
Ntp3555
a(g32
F86.449999999999989
Ntp3556
a(g9
F-580.45000000000005
Ntp3557
asba(itransac
Transaction
p3558
(dp3559
g4
I954748800
sg5
g37
sg7
(lp3560
(g39
F1200
Ntp3561
a(g32
F210
Ntp3562
a(g9
F-1410
Ntp3563
asba(itransac
Transaction
p3564
(dp3565
g4
I954752400
sg5
g444
sg7
(lp3566
(g9
F-461.44999999999999
Ntp3567
a(g232
F421.19999999999999
Ntp3568
a(g448
F40.25
Ntp3569
asba(itransac
Transaction
p3570
(dp3571
g4
I954889200
sg5
S'Bill received - Contractor'
p3572
sg7
(lp3573
(S'MyCo.Capital.PL.Expenses.Contractors'
I1500
Ntp3574
a(g32
F262.5
Ntp3575
a(g136
F-1762.5
Ntp3576
asba(itransac
Transaction
p3577
(dp3578
g4
I955062000
sg5
g45
sg7
(lp3579
(S'MyCo.Capital.PL.Expenses.Travel'
I31
Ntp3580
a(g9
I-31
Ntp3581
asba(itransac
Transaction
p3582
(dp3583
g4
I955148400
sg5
S'Bill paid - Contractor'
p3584
sg7
(lp3585
(g136
F1762.5
Ntp3586
a(g9
F-1762.5
Ntp3587
asba(itransac
Transaction
p3588
(dp3589
g4
I955180800
sg5
S'Bill raised - Consulting to 2-Apr-2000 9: 0: 0'
p3590
sg7
(lp3591
(S'MyCo.Capital.PL.Income.Consulting'
I-21600
Ntp3592
a(g32
F-3779.9999999999995
Ntp3593
a(g256
F25380
Ntp3594
asba(itransac
Transaction
p3595
(dp3596
g4
I955407600
sg5
g45
sg7
(lp3597
(S'MyCo.Capital.PL.Expenses.Travel'
I16
Ntp3598
a(g9
I-16
Ntp3599
asba(itransac
Transaction
p3600
(dp3601
g4
I955407600
sg5
g45
sg7
(lp3602
(S'MyCo.Capital.PL.Expenses.Utilities'
I6
Ntp3603
a(g9
I-6
Ntp3604
asba(itransac
Transaction
p3605
(dp3606
g4
I955494000
sg5
S'Bill received - Contractor'
p3607
sg7
(lp3608
(S'MyCo.Capital.PL.Expenses.Contractors'
I1500
Ntp3609
a(g32
F262.5
Ntp3610
a(g136
F-1762.5
Ntp3611
asba(itransac
Transaction
p3612
(dp3613
g4
I955530000
sg5
S'Payment received - Consulting to 2-Mar-2000 10: 0: 0'
p3614
sg7
(lp3615
(g256
F-25380
Ntp3616
a(g9
F25380
Ntp3617
asba(itransac
Transaction
p3618
(dp3619
g4
I955580400
sg5
g45
sg7
(lp3620
(S'MyCo.Capital.PL.Expenses.Labour'
I84
Ntp3621
a(g9
I-84
Ntp3622
asba(itransac
Transaction
p3623
(dp3624
g4
I955753200
sg5
S'Bill paid - Contractor'
p3625
sg7
(lp3626
(g136
F1762.5
Ntp3627
a(g9
F-1762.5
Ntp3628
asba(itransac
Transaction
p3629
(dp3630
g4
I955875600
sg5
g302
sg7
(lp3631
(g9
F-1762.5
Ntp3632
a(g136
F1762.5
Ntp3633
asba(itransac
Transaction
p3634
(dp3635
g4
I955926000
sg5
g45
sg7
(lp3636
(S'MyCo.Capital.PL.Expenses.Travel'
I83
Ntp3637
a(g9
I-83
Ntp3638
asba(itransac
Transaction
p3639
(dp3640
g4
I955958400
sg5
g131
sg7
(lp3641
(g133
F1500
Ntp3642
a(g32
F262.5
Ntp3643
a(g136
F-1762.5
Ntp3644
asba(itransac
Transaction
p3645
(dp3646
g4
I956098800
sg5
S'Bill received - Contractor'
p3647
sg7
(lp3648
(S'MyCo.Capital.PL.Expenses.Contractors'
I1500
Ntp3649
a(g32
F262.5
Ntp3650
a(g136
F-1762.5
Ntp3651
asba(itransac
Transaction
p3652
(dp3653
g4
I956185200
sg5
g45
sg7
(lp3654
(S'MyCo.Capital.PL.Expenses.Labour'
I72
Ntp3655
a(g9
I-72
Ntp3656
asba(itransac
Transaction
p3657
(dp3658
g4
I956358000
sg5
S'Bill paid - Contractor'
p3659
sg7
(lp3660
(g136
F1762.5
Ntp3661
a(g9
F-1762.5
Ntp3662
asba(itransac
Transaction
p3663
(dp3664
g4
I956530800
sg5
g45
sg7
(lp3665
(S'MyCo.Capital.PL.Expenses.Rent'
I58
Ntp3666
a(g9
I-58
Ntp3667
asba(itransac
Transaction
p3668
(dp3669
g4
I956563200
sg5
S'Salary for Roger'
p3670
sg7
(lp3671
(S'MyCo.Capital.PL.Expenses.Wages'
I3000
Ntp3672
a(g9
I-3000
Ntp3673
asba(itransac
Transaction
p3674
(dp3675
g4
I956566800
sg5
S'Salary for Simon'
p3676
sg7
(lp3677
(S'MyCo.Capital.PL.Expenses.Wages'
I2000
Ntp3678
a(g9
I-2000
Ntp3679
asba(itransac
Transaction
p3680
(dp3681
g4
I956566800
sg5
S'Salary for Tim'
p3682
sg7
(lp3683
(S'MyCo.Capital.PL.Expenses.Wages'
I1500
Ntp3684
a(g9
I-1500
Ntp3685
asba(itransac
Transaction
p3686
(dp3687
g4
I956574000
sg5
S'Salary for Andy'
p3688
sg7
(lp3689
(S'MyCo.Capital.PL.Expenses.Wages'
I3000
Ntp3690
a(g9
I-3000
Ntp3691
asba(itransac
Transaction
p3692
(dp3693
g4
I956588400
sg5
S'Salary for Richard'
p3694
sg7
(lp3695
(S'MyCo.Capital.PL.Expenses.Wages'
I3000
Ntp3696
a(g9
I-3000
Ntp3697
asba(itransac
Transaction
p3698
(dp3699
g4
I956617200
sg5
g45
sg7
(lp3700
(S'MyCo.Capital.PL.Expenses.Utilities'
I53
Ntp3701
a(g9
I-53
Ntp3702
asba(itransac
Transaction
p3703
(dp3704
g4
I956703600
sg5
S'Bill received - Contractor'
p3705
sg7
(lp3706
(S'MyCo.Capital.PL.Expenses.Contractors'
I1500
Ntp3707
a(g32
F262.5
Ntp3708
a(g136
F-1762.5
Ntp3709
asba(itransac
Transaction
p3710
(dp3711
g4
I956703600
sg5
g45
sg7
(lp3712
(S'MyCo.Capital.PL.Expenses.Rent'
I63
Ntp3713
a(g9
I-63
Ntp3714
asba(itransac
Transaction
p3715
(dp3716
g4
I956962800
sg5
S'Bill paid - Contractor'
p3717
sg7
(lp3718
(g136
F1762.5
Ntp3719
a(g9
F-1762.5
Ntp3720
asba(itransac
Transaction
p3721
(dp3722
g4
I957049200
sg5
g45
sg7
(lp3723
(S'MyCo.Capital.PL.Expenses.Rent'
I85
Ntp3724
a(g9
I-85
Ntp3725
asba(itransac
Transaction
p3726
(dp3727
g4
I957135600
sg5
g45
sg7
(lp3728
(S'MyCo.Capital.PL.Expenses.Stationery'
I59
Ntp3729
a(g9
I-59
Ntp3730
asba(itransac
Transaction
p3731
(dp3732
g4
I957135600
sg5
g45
sg7
(lp3733
(S'MyCo.Capital.PL.Expenses.Stationery'
I14
Ntp3734
a(g9
I-14
Ntp3735
asba(itransac
Transaction
p3736
(dp3737
g4
I957222000
sg5
g45
sg7
(lp3738
(S'MyCo.Capital.PL.Expenses.Utilities'
I68
Ntp3739
a(g9
I-68
Ntp3740
asba(itransac
Transaction
p3741
(dp3742
g4
I957254400
sg5
S'Cash Sale - Product Sales for month'
p3743
sg7
(lp3744
(S'MyCo.Capital.PL.Income.Software'
F-19487.169999999998
Ntp3745
a(g32
F-3410.2547499999996
Ntp3746
a(g9
F22897.424749999998
Ntp3747
asba(itransac
Transaction
p3748
(dp3749
g4
I957308400
sg5
S'Bill received - Contractor'
p3750
sg7
(lp3751
(S'MyCo.Capital.PL.Expenses.Contractors'
I1500
Ntp3752
a(g32
F262.5
Ntp3753
a(g136
F-1762.5
Ntp3754
asba(itransac
Transaction
p3755
(dp3756
g4
I957308400
sg5
g45
sg7
(lp3757
(S'MyCo.Capital.PL.Expenses.Labour'
I51
Ntp3758
a(g9
I-51
Ntp3759
asba(itransac
Transaction
p3760
(dp3761
g4
I957337200
sg5
g15
sg7
(lp3762
(S'MyCo.Capital.PL.Expenses.Rent'
I1500
Ntp3763
a(g18
I-1500
Ntp3764
asba(itransac
Transaction
p3765
(dp3766
g4
I957337200
sg5
g28
sg7
(lp3767
(g30
F540
Ntp3768
a(g32
F94.5
Ntp3769
a(g9
F-634.5
Ntp3770
asba(itransac
Transaction
p3771
(dp3772
g4
I957337200
sg5
g37
sg7
(lp3773
(g39
F1200
Ntp3774
a(g32
F210
Ntp3775
a(g9
F-1410
Ntp3776
asba(itransac
Transaction
p3777
(dp3778
g4
I957340800
sg5
g444
sg7
(lp3779
(g9
F-461.44999999999999
Ntp3780
a(g232
F424.70999999999998
Ntp3781
a(g448
F36.740000000000002
Ntp3782
asba(itransac
Transaction
p3783
(dp3784
g4
I957394800
sg5
g45
sg7
(lp3785
(S'MyCo.Capital.PL.Expenses.Stationery'
I7
Ntp3786
a(g9
I-7
Ntp3787
asba(itransac
Transaction
p3788
(dp3789
g4
I957481200
sg5
g45
sg7
(lp3790
(S'MyCo.Capital.PL.Expenses.Stationery'
I95
Ntp3791
a(g9
I-95
Ntp3792
asba(itransac
Transaction
p3793
(dp3794
g4
I957567600
sg5
S'Bill paid - Contractor'
p3795
sg7
(lp3796
(g136
F1762.5
Ntp3797
a(g9
F-1762.5
Ntp3798
asba(itransac
Transaction
p3799
(dp3800
g4
I957654000
sg5
g45
sg7
(lp3801
(S'MyCo.Capital.PL.Expenses.Travel'
I57
Ntp3802
a(g9
I-57
Ntp3803
asba(itransac
Transaction
p3804
(dp3805
g4
I957654000
sg5
g45
sg7
(lp3806
(S'MyCo.Capital.PL.Expenses.Rent'
I78
Ntp3807
a(g9
I-78
Ntp3808
asba(itransac
Transaction
p3809
(dp3810
g4
I957654000
sg5
g45
sg7
(lp3811
(S'MyCo.Capital.PL.Expenses.Labour'
I43
Ntp3812
a(g9
I-43
Ntp3813
asba(itransac
Transaction
p3814
(dp3815
g4
I957740400
sg5
g45
sg7
(lp3816
(S'MyCo.Capital.PL.Expenses.Stationery'
I11
Ntp3817
a(g9
I-11
Ntp3818
asba(itransac
Transaction
p3819
(dp3820
g4
I957769200
sg5
S'Bill raised - Consulting to 2-May-2000 8: 0: 0'
p3821
sg7
(lp3822
(S'MyCo.Capital.PL.Income.Consulting'
I-21600
Ntp3823
a(g32
F-3779.9999999999995
Ntp3824
a(g256
F25380
Ntp3825
asba(itransac
Transaction
p3826
(dp3827
g4
I957913200
sg5
S'Bill received - Contractor'
p3828
sg7
(lp3829
(S'MyCo.Capital.PL.Expenses.Contractors'
I1500
Ntp3830
a(g32
F262.5
Ntp3831
a(g136
F-1762.5
Ntp3832
asba(itransac
Transaction
p3833
(dp3834
g4
I957913200
sg5
g45
sg7
(lp3835
(S'MyCo.Capital.PL.Expenses.Rent'
I11
Ntp3836
a(g9
I-11
Ntp3837
asba(itransac
Transaction
p3838
(dp3839
g4
I958172400
sg5
S'Bill paid - Contractor'
p3840
sg7
(lp3841
(g136
F1762.5
Ntp3842
a(g9
F-1762.5
Ntp3843
asba(itransac
Transaction
p3844
(dp3845
g4
I958204800
sg5
S'Payment received - Consulting to 2-Apr-2000 9: 0: 0'
p3846
sg7
(lp3847
(g256
F-25380
Ntp3848
a(g9
F25380
Ntp3849
asba(itransac
Transaction
p3850
(dp3851
g4
I958258800
sg5
g45
sg7
(lp3852
(S'MyCo.Capital.PL.Expenses.Rent'
I93
Ntp3853
a(g9
I-93
Ntp3854
asba(itransac
Transaction
p3855
(dp3856
g4
I958345200
sg5
g45
sg7
(lp3857
(S'MyCo.Capital.PL.Expenses.Utilities'
I88
Ntp3858
a(g9
I-88
Ntp3859
asba(itransac
Transaction
p3860
(dp3861
g4
I958431600
sg5
g45
sg7
(lp3862
(S'MyCo.Capital.PL.Expenses.Rent'
I12
Ntp3863
a(g9
I-12
Ntp3864
asba(itransac
Transaction
p3865
(dp3866
g4
I958464000
sg5
g302
sg7
(lp3867
(g9
F-1762.5
Ntp3868
a(g136
F1762.5
Ntp3869
asba(itransac
Transaction
p3870
(dp3871
g4
I958518000
sg5
S'Bill received - Contractor'
p3872
sg7
(lp3873
(S'MyCo.Capital.PL.Expenses.Contractors'
I1500
Ntp3874
a(g32
F262.5
Ntp3875
a(g136
F-1762.5
Ntp3876
asba(itransac
Transaction
p3877
(dp3878
g4
I958604400
sg5
g45
sg7
(lp3879
(S'MyCo.Capital.PL.Expenses.Utilities'
I10
Ntp3880
a(g9
I-10
Ntp3881
asba(itransac
Transaction
p3882
(dp3883
g4
I958604400
sg5
g45
sg7
(lp3884
(S'MyCo.Capital.PL.Expenses.Utilities'
I58
Ntp3885
a(g9
I-58
Ntp3886
asba(itransac
Transaction
p3887
(dp3888
g4
I958777200
sg5
S'Bill paid - Contractor'
p3889
sg7
(lp3890
(g136
F1762.5
Ntp3891
a(g9
F-1762.5
Ntp3892
asba(itransac
Transaction
p3893
(dp3894
g4
I958950000
sg5
g45
sg7
(lp3895
(S'MyCo.Capital.PL.Expenses.Rent'
I53
Ntp3896
a(g9
I-53
Ntp3897
asba(itransac
Transaction
p3898
(dp3899
g4
I959036400
sg5
g45
sg7
(lp3900
(S'MyCo.Capital.PL.Expenses.Labour'
I17
Ntp3901
a(g9
I-17
Ntp3902
asba(itransac
Transaction
p3903
(dp3904
g4
I959122800
sg5
S'Bill received - Contractor'
p3905
sg7
(lp3906
(S'MyCo.Capital.PL.Expenses.Contractors'
I1500
Ntp3907
a(g32
F262.5
Ntp3908
a(g136
F-1762.5
Ntp3909
asba(itransac
Transaction
p3910
(dp3911
g4
I959151600
sg5
S'Salary for Roger'
p3912
sg7
(lp3913
(S'MyCo.Capital.PL.Expenses.Wages'
I3000
Ntp3914
a(g9
I-3000
Ntp3915
asba(itransac
Transaction
p3916
(dp3917
g4
I959155200
sg5
S'Salary for Simon'
p3918
sg7
(lp3919
(S'MyCo.Capital.PL.Expenses.Wages'
I2000
Ntp3920
a(g9
I-2000
Ntp3921
asba(itransac
Transaction
p3922
(dp3923
g4
I959155200
sg5
S'Salary for Tim'
p3924
sg7
(lp3925
(S'MyCo.Capital.PL.Expenses.Wages'
I1500
Ntp3926
a(g9
I-1500
Ntp3927
asba(itransac
Transaction
p3928
(dp3929
g4
I959162400
sg5
S'Salary for Andy'
p3930
sg7
(lp3931
(S'MyCo.Capital.PL.Expenses.Wages'
I3000
Ntp3932
a(g9
I-3000
Ntp3933
asba(itransac
Transaction
p3934
(dp3935
g4
I959176800
sg5
S'Salary for Richard'
p3936
sg7
(lp3937
(S'MyCo.Capital.PL.Expenses.Wages'
I3000
Ntp3938
a(g9
I-3000
Ntp3939
asba(itransac
Transaction
p3940
(dp3941
g4
I959295600
sg5
g45
sg7
(lp3942
(S'MyCo.Capital.PL.Expenses.Travel'
I80
Ntp3943
a(g9
I-80
Ntp3944
asba(itransac
Transaction
p3945
(dp3946
g4
I959295600
sg5
g45
sg7
(lp3947
(S'MyCo.Capital.PL.Expenses.Stationery'
I80
Ntp3948
a(g9
I-80
Ntp3949
asba(itransac
Transaction
p3950
(dp3951
g4
I959382000
sg5
S'Bill paid - Contractor'
p3952
sg7
(lp3953
(g136
F1762.5
Ntp3954
a(g9
F-1762.5
Ntp3955
asba(itransac
Transaction
p3956
(dp3957
g4
I959554800
sg5
g45
sg7
(lp3958
(S'MyCo.Capital.PL.Expenses.Stationery'
I66
Ntp3959
a(g9
I-66
Ntp3960
asba(itransac
Transaction
p3961
(dp3962
g4
I959554800
sg5
g45
sg7
(lp3963
(S'MyCo.Capital.PL.Expenses.Travel'
I100
Ntp3964
a(g9
I-100
Ntp3965
asba(itransac
Transaction
p3966
(dp3967
g4
I959641200
sg5
g45
sg7
(lp3968
(S'MyCo.Capital.PL.Expenses.Rent'
I96
Ntp3969
a(g9
I-96
Ntp3970
asba(itransac
Transaction
p3971
(dp3972
g4
I959727600
sg5
S'Bill received - Contractor'
p3973
sg7
(lp3974
(S'MyCo.Capital.PL.Expenses.Contractors'
I1500
Ntp3975
a(g32
F262.5
Ntp3976
a(g136
F-1762.5
Ntp3977
asba(itransac
Transaction
p3978
(dp3979
g4
I959727600
sg5
g45
sg7
(lp3980
(S'MyCo.Capital.PL.Expenses.Stationery'
I39
Ntp3981
a(g9
I-39
Ntp3982
asba(itransac
Transaction
p3983
(dp3984
g4
I959727600
sg5
g45
sg7
(lp3985
(S'MyCo.Capital.PL.Expenses.Travel'
I98
Ntp3986
a(g9
I-98
Ntp3987
asba(itransac
Transaction
p3988
(dp3989
g4
I959929200
sg5
S'Cash Sale - Product Sales for month'
p3990
sg7
(lp3991
(S'MyCo.Capital.PL.Income.Software'
F-21435.887999999999
Ntp3992
a(g32
F-3751.2803999999996
Ntp3993
a(g9
F25187.168399999999
Ntp3994
asba(itransac
Transaction
p3995
(dp3996
g4
I959986800
sg5
S'Bill paid - Contractor'
p3997
sg7
(lp3998
(g136
F1762.5
Ntp3999
a(g9
F-1762.5
Ntp4000
asba(itransac
Transaction
p4001
(dp4002
g4
I959986800
sg5
g45
sg7
(lp4003
(S'MyCo.Capital.PL.Expenses.Labour'
I71
Ntp4004
a(g9
I-71
Ntp4005
asba(itransac
Transaction
p4006
(dp4007
g4
I959986800
sg5
g45
sg7
(lp4008
(S'MyCo.Capital.PL.Expenses.Utilities'
I90
Ntp4009
a(g9
I-90
Ntp4010
asba(itransac
Transaction
p4011
(dp4012
g4
I960012000
sg5
g15
sg7
(lp4013
(S'MyCo.Capital.PL.Expenses.Rent'
I1500
Ntp4014
a(g18
I-1500
Ntp4015
asba(itransac
Transaction
p4016
(dp4017
g4
I960012000
sg5
g28
sg7
(lp4018
(g30
F511
Ntp4019
a(g32
F89.424999999999997
Ntp4020
a(g9
F-600.42500000000007
Ntp4021
asba(itransac
Transaction
p4022
(dp4023
g4
I960012000
sg5
g37
sg7
(lp4024
(g39
F1200
Ntp4025
a(g32
F210
Ntp4026
a(g9
F-1410
Ntp4027
asba(itransac
Transaction
p4028
(dp4029
g4
I960015600
sg5
g444
sg7
(lp4030
(g9
F-461.44999999999999
Ntp4031
a(g232
F428.25
Ntp4032
a(g448
F33.200000000000003
Ntp4033
asba(itransac
Transaction
p4034
(dp4035
g4
I960159600
sg5
g45
sg7
(lp4036
(S'MyCo.Capital.PL.Expenses.Labour'
I58
Ntp4037
a(g9
I-58
Ntp4038
asba(itransac
Transaction
p4039
(dp4040
g4
I960246000
sg5
g45
sg7
(lp4041
(S'MyCo.Capital.PL.Expenses.Rent'
I15
Ntp4042
a(g9
I-15
Ntp4043
asba(itransac
Transaction
p4044
(dp4045
g4
I960332400
sg5
S'Bill received - Contractor'
p4046
sg7
(lp4047
(S'MyCo.Capital.PL.Expenses.Contractors'
I1500
Ntp4048
a(g32
F262.5
Ntp4049
a(g136
F-1762.5
Ntp4050
asba(itransac
Transaction
p4051
(dp4052
g4
I960332400
sg5
g45
sg7
(lp4053
(S'MyCo.Capital.PL.Expenses.Utilities'
I59
Ntp4054
a(g9
I-59
Ntp4055
asba(itransac
Transaction
p4056
(dp4057
g4
I960418800
sg5
g45
sg7
(lp4058
(S'MyCo.Capital.PL.Expenses.Travel'
I38
Ntp4059
a(g9
I-38
Ntp4060
asba(itransac
Transaction
p4061
(dp4062
g4
I960444000
sg5
S'Bill raised - Consulting to 2-Jun-2000 7: 0: 0'
p4063
sg7
(lp4064
(S'MyCo.Capital.PL.Income.Consulting'
I-21600
Ntp4065
a(g32
F-3779.9999999999995
Ntp4066
a(g256
F25380
Ntp4067
asba(itransac
Transaction
p4068
(dp4069
g4
I960505200
sg5
g45
sg7
(lp4070
(S'MyCo.Capital.PL.Expenses.Rent'
I68
Ntp4071
a(g9
I-68
Ntp4072
asba(itransac
Transaction
p4073
(dp4074
g4
I960505200
sg5
g45
sg7
(lp4075
(S'MyCo.Capital.PL.Expenses.Travel'
I41
Ntp4076
a(g9
I-41
Ntp4077
asba(itransac
Transaction
p4078
(dp4079
g4
I960591600
sg5
S'Bill paid - Contractor'
p4080
sg7
(lp4081
(g136
F1762.5
Ntp4082
a(g9
F-1762.5
Ntp4083
asba(itransac
Transaction
p4084
(dp4085
g4
I960591600
sg5
g45
sg7
(lp4086
(S'MyCo.Capital.PL.Expenses.Travel'
I5
Ntp4087
a(g9
I-5
Ntp4088
asba(itransac
Transaction
p4089
(dp4090
g4
I960591600
sg5
g45
sg7
(lp4091
(S'MyCo.Capital.PL.Expenses.Labour'
I50
Ntp4092
a(g9
I-50
Ntp4093
asba(itransac
Transaction
p4094
(dp4095
g4
I960678000
sg5
g45
sg7
(lp4096
(S'MyCo.Capital.PL.Expenses.Rent'
I69
Ntp4097
a(g9
I-69
Ntp4098
asba(itransac
Transaction
p4099
(dp4100
g4
I960678000
sg5
g45
sg7
(lp4101
(S'MyCo.Capital.PL.Expenses.Utilities'
I4
Ntp4102
a(g9
I-4
Ntp4103
asba(itransac
Transaction
p4104
(dp4105
g4
I960764400
sg5
g45
sg7
(lp4106
(S'MyCo.Capital.PL.Expenses.Travel'
I29
Ntp4107
a(g9
I-29
Ntp4108
asba(itransac
Transaction
p4109
(dp4110
g4
I960793200
sg5
S'Payment received - Consulting to 2-May-2000 8: 0: 0'
p4111
sg7
(lp4112
(g256
F-25380
Ntp4113
a(g9
F25380
Ntp4114
asba(itransac
Transaction
p4115
(dp4116
g4
I960850800
sg5
g45
sg7
(lp4117
(S'MyCo.Capital.PL.Expenses.Stationery'
I22
Ntp4118
a(g9
I-22
Ntp4119
asba(itransac
Transaction
p4120
(dp4121
g4
I960937200
sg5
S'Bill received - Contractor'
p4122
sg7
(lp4123
(S'MyCo.Capital.PL.Expenses.Contractors'
I1500
Ntp4124
a(g32
F262.5
Ntp4125
a(g136
F-1762.5
Ntp4126
asba(itransac
Transaction
p4127
(dp4128
g4
I961196400
sg5
S'Bill paid - Contractor'
p4129
sg7
(lp4130
(g136
F1762.5
Ntp4131
a(g9
F-1762.5
Ntp4132
asba(itransac
Transaction
p4133
(dp4134
g4
I961282800
sg5
g45
sg7
(lp4135
(S'MyCo.Capital.PL.Expenses.Labour'
I65
Ntp4136
a(g9
I-65
Ntp4137
asba(itransac
Transaction
p4138
(dp4139
g4
I961542000
sg5
S'Bill received - Contractor'
p4140
sg7
(lp4141
(S'MyCo.Capital.PL.Expenses.Contractors'
I1500
Ntp4142
a(g32
F262.5
Ntp4143
a(g136
F-1762.5
Ntp4144
asba(itransac
Transaction
p4145
(dp4146
g4
I961714800
sg5
g45
sg7
(lp4147
(S'MyCo.Capital.PL.Expenses.Utilities'
I32
Ntp4148
a(g9
I-32
Ntp4149
asba(itransac
Transaction
p4150
(dp4151
g4
I961801200
sg5
S'Bill paid - Contractor'
p4152
sg7
(lp4153
(g136
F1762.5
Ntp4154
a(g9
F-1762.5
Ntp4155
asba(itransac
Transaction
p4156
(dp4157
g4
I961826400
sg5
S'Salary for Roger'
p4158
sg7
(lp4159
(S'MyCo.Capital.PL.Expenses.Wages'
I3000
Ntp4160
a(g9
I-3000
Ntp4161
asba(itransac
Transaction
p4162
(dp4163
g4
I961830000
sg5
S'Salary for Simon'
p4164
sg7
(lp4165
(S'MyCo.Capital.PL.Expenses.Wages'
I2000
Ntp4166
a(g9
I-2000
Ntp4167
asba(itransac
Transaction
p4168
(dp4169
g4
I961830000
sg5
S'Salary for Tim'
p4170
sg7
(lp4171
(S'MyCo.Capital.PL.Expenses.Wages'
I1500
Ntp4172
a(g9
I-1500
Ntp4173
asba(itransac
Transaction
p4174
(dp4175
g4
I961837200
sg5
S'Salary for Andy'
p4176
sg7
(lp4177
(S'MyCo.Capital.PL.Expenses.Wages'
I3000
Ntp4178
a(g9
I-3000
Ntp4179
asba(itransac
Transaction
p4180
(dp4181
g4
I961851600
sg5
S'Salary for Richard'
p4182
sg7
(lp4183
(S'MyCo.Capital.PL.Expenses.Wages'
I3000
Ntp4184
a(g9
I-3000
Ntp4185
asba(itransac
Transaction
p4186
(dp4187
g4
I962060400
sg5
g45
sg7
(lp4188
(S'MyCo.Capital.PL.Expenses.Utilities'
I60
Ntp4189
a(g9
I-60
Ntp4190
asba(itransac
Transaction
p4191
(dp4192
g4
I962146800
sg5
S'Bill received - Contractor'
p4193
sg7
(lp4194
(S'MyCo.Capital.PL.Expenses.Contractors'
I1500
Ntp4195
a(g32
F262.5
Ntp4196
a(g136
F-1762.5
Ntp4197
asba(itransac
Transaction
p4198
(dp4199
g4
I962146800
sg5
g45
sg7
(lp4200
(S'MyCo.Capital.PL.Expenses.Travel'
I72
Ntp4201
a(g9
I-72
Ntp4202
asba(itransac
Transaction
p4203
(dp4204
g4
I962146800
sg5
g45
sg7
(lp4205
(S'MyCo.Capital.PL.Expenses.Stationery'
I47
Ntp4206
a(g9
I-47
Ntp4207
asba(itransac
Transaction
p4208
(dp4209
g4
I962146800
sg5
g45
sg7
(lp4210
(S'MyCo.Capital.PL.Expenses.Stationery'
I4
Ntp4211
a(g9
I-4
Ntp4212
asba(itransac
Transaction
p4213
(dp4214
g4
I962233200
sg5
g45
sg7
(lp4215
(S'MyCo.Capital.PL.Expenses.Rent'
I97
Ntp4216
a(g9
I-97
Ntp4217
asba(itransac
Transaction
p4218
(dp4219
g4
I962233200
sg5
g45
sg7
(lp4220
(S'MyCo.Capital.PL.Expenses.Stationery'
I64
Ntp4221
a(g9
I-64
Ntp4222
asba(itransac
Transaction
p4223
(dp4224
g4
I962319600
sg5
g45
sg7
(lp4225
(S'MyCo.Capital.PL.Expenses.Stationery'
I52
Ntp4226
a(g9
I-52
Ntp4227
asba(itransac
Transaction
p4228
(dp4229
g4
I962319600
sg5
g45
sg7
(lp4230
(S'MyCo.Capital.PL.Expenses.Rent'
I3
Ntp4231
a(g9
I-3
Ntp4232
asba(itransac
Transaction
p4233
(dp4234
g4
I962406000
sg5
S'Bill paid - Contractor'
p4235
sg7
(lp4236
(g136
F1762.5
Ntp4237
a(g9
F-1762.5
Ntp4238
asba(itransac
Transaction
p4239
(dp4240
g4
I962470800
sg5
g22
sg7
(lp4241
(g18
I4500
Ntp4242
a(g9
I-4500
Ntp4243
asba(itransac
Transaction
p4244
(dp4245
g4
I962517600
sg5
S'Cash Sale - Product Sales for month'
p4246
sg7
(lp4247
(S'MyCo.Capital.PL.Income.Software'
F-23579.48
Ntp4248
a(g32
F-4126.4089999999997
Ntp4249
a(g9
F27705.888999999999
Ntp4250
asba(itransac
Transaction
p4251
(dp4252
g4
I962578800
sg5
g45
sg7
(lp4253
(S'MyCo.Capital.PL.Expenses.Stationery'
I58
Ntp4254
a(g9
I-58
Ntp4255
asba(itransac
Transaction
p4256
(dp4257
g4
I962600400
sg5
g15
sg7
(lp4258
(S'MyCo.Capital.PL.Expenses.Rent'
I1500
Ntp4259
a(g18
I-1500
Ntp4260
asba(itransac
Transaction
p4261
(dp4262
g4
I962600400
sg5
g28
sg7
(lp4263
(g30
F353
Ntp4264
a(g32
F61.774999999999999
Ntp4265
a(g9
F-414.77500000000003
Ntp4266
asba(itransac
Transaction
p4267
(dp4268
g4
I962600400
sg5
g37
sg7
(lp4269
(g39
F1200
Ntp4270
a(g32
F210
Ntp4271
a(g9
F-1410
Ntp4272
asba(itransac
Transaction
p4273
(dp4274
g4
I962604000
sg5
g444
sg7
(lp4275
(g9
F-461.44999999999999
Ntp4276
a(g232
F431.81
Ntp4277
a(g448
F29.640000000000001
Ntp4278
asba(itransac
Transaction
p4279
(dp4280
g4
I962665200
sg5
g45
sg7
(lp4281
(S'MyCo.Capital.PL.Expenses.Stationery'
I66
Ntp4282
a(g9
I-66
Ntp4283
asba(itransac
Transaction
p4284
(dp4285
g4
I962751600
sg5
S'Bill received - Contractor'
p4286
sg7
(lp4287
(S'MyCo.Capital.PL.Expenses.Contractors'
I1500
Ntp4288
a(g32
F262.5
Ntp4289
a(g136
F-1762.5
Ntp4290
asba(itransac
Transaction
p4291
(dp4292
g4
I962838000
sg5
g45
sg7
(lp4293
(S'MyCo.Capital.PL.Expenses.Labour'
I47
Ntp4294
a(g9
I-47
Ntp4295
asba(itransac
Transaction
p4296
(dp4297
g4
I962838000
sg5
g45
sg7
(lp4298
(S'MyCo.Capital.PL.Expenses.Utilities'
I88
Ntp4299
a(g9
I-88
Ntp4300
asba(itransac
Transaction
p4301
(dp4302
g4
I962838000
sg5
g45
sg7
(lp4303
(S'MyCo.Capital.PL.Expenses.Labour'
I43
Ntp4304
a(g9
I-43
Ntp4305
asba(itransac
Transaction
p4306
(dp4307
g4
I963010800
sg5
S'Bill paid - Contractor'
p4308
sg7
(lp4309
(g136
F1762.5
Ntp4310
a(g9
F-1762.5
Ntp4311
asba(itransac
Transaction
p4312
(dp4313
g4
I963032400
sg5
S'Bill raised - Consulting to 2-Jul-2000 6: 0: 0'
p4314
sg7
(lp4315
(S'MyCo.Capital.PL.Income.Consulting'
I-21600
Ntp4316
a(g32
F-3779.9999999999995
Ntp4317
a(g256
F25380
Ntp4318
asba(itransac
Transaction
p4319
(dp4320
g4
I963097200
sg5
g45
sg7
(lp4321
(S'MyCo.Capital.PL.Expenses.Utilities'
I45
Ntp4322
a(g9
I-45
Ntp4323
asba(itransac
Transaction
p4324
(dp4325
g4
I963183600
sg5
g45
sg7
(lp4326
(S'MyCo.Capital.PL.Expenses.Rent'
I68
Ntp4327
a(g9
I-68
Ntp4328
asba(itransac
Transaction
p4329
(dp4330
g4
I963270000
sg5
g45
sg7
(lp4331
(S'MyCo.Capital.PL.Expenses.Stationery'
I38
Ntp4332
a(g9
I-38
Ntp4333
asba(itransac
Transaction
p4334
(dp4335
g4
I963356400
sg5
S'Bill received - Contractor'
p4336
sg7
(lp4337
(S'MyCo.Capital.PL.Expenses.Contractors'
I1500
Ntp4338
a(g32
F262.5
Ntp4339
a(g136
F-1762.5
Ntp4340
asba(itransac
Transaction
p4341
(dp4342
g4
I963356400
sg5
g45
sg7
(lp4343
(S'MyCo.Capital.PL.Expenses.Utilities'
I9
Ntp4344
a(g9
I-9
Ntp4345
asba(itransac
Transaction
p4346
(dp4347
g4
I963468000
sg5
S'Payment received - Consulting to 2-Jun-2000 7: 0: 0'
p4348
sg7
(lp4349
(g256
F-25380
Ntp4350
a(g9
F25380
Ntp4351
asba(itransac
Transaction
p4352
(dp4353
g4
I963529200
sg5
g45
sg7
(lp4354
(S'MyCo.Capital.PL.Expenses.Rent'
I88
Ntp4355
a(g9
I-88
Ntp4356
asba(itransac
Transaction
p4357
(dp4358
g4
I963615600
sg5
S'Bill paid - Contractor'
p4359
sg7
(lp4360
(g136
F1762.5
Ntp4361
a(g9
F-1762.5
Ntp4362
asba(itransac
Transaction
p4363
(dp4364
g4
I963615600
sg5
g45
sg7
(lp4365
(S'MyCo.Capital.PL.Expenses.Rent'
I76
Ntp4366
a(g9
I-76
Ntp4367
asba(itransac
Transaction
p4368
(dp4369
g4
I963788400
sg5
g45
sg7
(lp4370
(S'MyCo.Capital.PL.Expenses.Labour'
I33
Ntp4371
a(g9
I-33
Ntp4372
asba(itransac
Transaction
p4373
(dp4374
g4
I963788400
sg5
g45
sg7
(lp4375
(S'MyCo.Capital.PL.Expenses.Rent'
I44
Ntp4376
a(g9
I-44
Ntp4377
asba(itransac
Transaction
p4378
(dp4379
g4
I963961200
sg5
S'Bill received - Contractor'
p4380
sg7
(lp4381
(S'MyCo.Capital.PL.Expenses.Contractors'
I1500
Ntp4382
a(g32
F262.5
Ntp4383
a(g136
F-1762.5
Ntp4384
asba(itransac
Transaction
p4385
(dp4386
g4
I963961200
sg5
g45
sg7
(lp4387
(S'MyCo.Capital.PL.Expenses.Stationery'
I9
Ntp4388
a(g9
I-9
Ntp4389
asba(itransac
Transaction
p4390
(dp4391
g4
I964047600
sg5
g45
sg7
(lp4392
(S'MyCo.Capital.PL.Expenses.Rent'
I91
Ntp4393
a(g9
I-91
Ntp4394
asba(itransac
Transaction
p4395
(dp4396
g4
I964047600
sg5
g45
sg7
(lp4397
(S'MyCo.Capital.PL.Expenses.Stationery'
I38
Ntp4398
a(g9
I-38
Ntp4399
asba(itransac
Transaction
p4400
(dp4401
g4
I964220400
sg5
S'Bill paid - Contractor'
p4402
sg7
(lp4403
(g136
F1762.5
Ntp4404
a(g9
F-1762.5
Ntp4405
asba(itransac
Transaction
p4406
(dp4407
g4
I964393200
sg5
g45
sg7
(lp4408
(S'MyCo.Capital.PL.Expenses.Labour'
I30
Ntp4409
a(g9
I-30
Ntp4410
asba(itransac
Transaction
p4411
(dp4412
g4
I964414800
sg5
S'Salary for Roger'
p4413
sg7
(lp4414
(S'MyCo.Capital.PL.Expenses.Wages'
I3000
Ntp4415
a(g9
I-3000
Ntp4416
asba(itransac
Transaction
p4417
(dp4418
g4
I964418400
sg5
S'Salary for Simon'
p4419
sg7
(lp4420
(S'MyCo.Capital.PL.Expenses.Wages'
I2000
Ntp4421
a(g9
I-2000
Ntp4422
asba(itransac
Transaction
p4423
(dp4424
g4
I964418400
sg5
S'Salary for Tim'
p4425
sg7
(lp4426
(S'MyCo.Capital.PL.Expenses.Wages'
I1500
Ntp4427
a(g9
I-1500
Ntp4428
asba(itransac
Transaction
p4429
(dp4430
g4
I964425600
sg5
S'Salary for Andy'
p4431
sg7
(lp4432
(S'MyCo.Capital.PL.Expenses.Wages'
I3000
Ntp4433
a(g9
I-3000
Ntp4434
asba(itransac
Transaction
p4435
(dp4436
g4
I964440000
sg5
S'Salary for Richard'
p4437
sg7
(lp4438
(S'MyCo.Capital.PL.Expenses.Wages'
I3000
Ntp4439
a(g9
I-3000
Ntp4440
asba(itransac
Transaction
p4441
(dp4442
g4
I964566000
sg5
S'Bill received - Contractor'
p4443
sg7
(lp4444
(S'MyCo.Capital.PL.Expenses.Contractors'
I1500
Ntp4445
a(g32
F262.5
Ntp4446
a(g136
F-1762.5
Ntp4447
asba(itransac
Transaction
p4448
(dp4449
g4
I964652400
sg5
g45
sg7
(lp4450
(S'MyCo.Capital.PL.Expenses.Utilities'
I23
Ntp4451
a(g9
I-23
Ntp4452
asba(itransac
Transaction
p4453
(dp4454
g4
I964825200
sg5
S'Bill paid - Contractor'
p4455
sg7
(lp4456
(g136
F1762.5
Ntp4457
a(g9
F-1762.5
Ntp4458
asba(itransac
Transaction
p4459
(dp4460
g4
I964825200
sg5
g45
sg7
(lp4461
(S'MyCo.Capital.PL.Expenses.Travel'
I99
Ntp4462
a(g9
I-99
Ntp4463
asba(itransac
Transaction
p4464
(dp4465
g4
I965084400
sg5
g45
sg7
(lp4466
(S'MyCo.Capital.PL.Expenses.Travel'
I83
Ntp4467
a(g9
I-83
Ntp4468
asba(itransac
Transaction
p4469
(dp4470
g4
I965170800
sg5
S'Bill received - Contractor'
p4471
sg7
(lp4472
(S'MyCo.Capital.PL.Expenses.Contractors'
I1500
Ntp4473
a(g32
F262.5
Ntp4474
a(g136
F-1762.5
Ntp4475
asba(itransac
Transaction
p4476
(dp4477
g4
I965192400
sg5
S'Cash Sale - Product Sales for month'
p4478
sg7
(lp4479
(S'MyCo.Capital.PL.Income.Software'
F-25937.419999999998
Ntp4480
a(g32
F-4539.048499999999
Ntp4481
a(g9
F30476.468499999995
Ntp4482
asba(itransac
Transaction
p4483
(dp4484
g4
I965275200
sg5
g15
sg7
(lp4485
(S'MyCo.Capital.PL.Expenses.Rent'
I1500
Ntp4486
a(g18
I-1500
Ntp4487
asba(itransac
Transaction
p4488
(dp4489
g4
I965275200
sg5
g28
sg7
(lp4490
(g30
F615
Ntp4491
a(g32
F107.625
Ntp4492
a(g9
F-722.625
Ntp4493
asba(itransac
Transaction
p4494
(dp4495
g4
I965275200
sg5
g37
sg7
(lp4496
(g39
F1200
Ntp4497
a(g32
F210
Ntp4498
a(g9
F-1410
Ntp4499
asba(itransac
Transaction
p4500
(dp4501
g4
I965278800
sg5
g444
sg7
(lp4502
(g9
F-461.44999999999999
Ntp4503
a(g232
F435.40999999999997
Ntp4504
a(g448
F26.039999999999999
Ntp4505
asba(itransac
Transaction
p4506
(dp4507
g4
I965343600
sg5
g45
sg7
(lp4508
(S'MyCo.Capital.PL.Expenses.Labour'
I85
Ntp4509
a(g9
I-85
Ntp4510
asba(itransac
Transaction
p4511
(dp4512
g4
I965430000
sg5
S'Bill paid - Contractor'
p4513
sg7
(lp4514
(g136
F1762.5
Ntp4515
a(g9
F-1762.5
Ntp4516
asba(itransac
Transaction
p4517
(dp4518
g4
I965430000
sg5
g45
sg7
(lp4519
(S'MyCo.Capital.PL.Expenses.Labour'
I70
Ntp4520
a(g9
I-70
Ntp4521
asba(itransac
Transaction
p4522
(dp4523
g4
I965516400
sg5
g45
sg7
(lp4524
(S'MyCo.Capital.PL.Expenses.Stationery'
I82
Ntp4525
a(g9
I-82
Ntp4526
asba(itransac
Transaction
p4527
(dp4528
g4
I965689200
sg5
g45
sg7
(lp4529
(S'MyCo.Capital.PL.Expenses.Utilities'
I72
Ntp4530
a(g9
I-72
Ntp4531
asba(itransac
Transaction
p4532
(dp4533
g4
I965689200
sg5
g45
sg7
(lp4534
(S'MyCo.Capital.PL.Expenses.Rent'
I70
Ntp4535
a(g9
I-70
Ntp4536
asba(itransac
Transaction
p4537
(dp4538
g4
I965707200
sg5
S'Bill raised - Consulting to 2-Aug-2000 5: 0: 0'
p4539
sg7
(lp4540
(S'MyCo.Capital.PL.Income.Consulting'
I-21600
Ntp4541
a(g32
F-3779.9999999999995
Ntp4542
a(g256
F25380
Ntp4543
asba(itransac
Transaction
p4544
(dp4545
g4
I965775600
sg5
S'Bill received - Contractor'
p4546
sg7
(lp4547
(S'MyCo.Capital.PL.Expenses.Contractors'
I1500
Ntp4548
a(g32
F262.5
Ntp4549
a(g136
F-1762.5
Ntp4550
asba(itransac
Transaction
p4551
(dp4552
g4
I966034800
sg5
S'Bill paid - Contractor'
p4553
sg7
(lp4554
(g136
F1762.5
Ntp4555
a(g9
F-1762.5
Ntp4556
asba(itransac
Transaction
p4557
(dp4558
g4
I966056400
sg5
S'Payment received - Consulting to 2-Jul-2000 6: 0: 0'
p4559
sg7
(lp4560
(g256
F-25380
Ntp4561
a(g9
F25380
Ntp4562
asba(itransac
Transaction
p4563
(dp4564
g4
I966121200
sg5
g45
sg7
(lp4565
(S'MyCo.Capital.PL.Expenses.Labour'
I48
Ntp4566
a(g9
I-48
Ntp4567
asba(itransac
Transaction
p4568
(dp4569
g4
I966207600
sg5
g45
sg7
(lp4570
(S'MyCo.Capital.PL.Expenses.Labour'
I17
Ntp4571
a(g9
I-17
Ntp4572
asba(itransac
Transaction
p4573
(dp4574
g4
I966207600
sg5
g45
sg7
(lp4575
(S'MyCo.Capital.PL.Expenses.Utilities'
I87
Ntp4576
a(g9
I-87
Ntp4577
asba(itransac
Transaction
p4578
(dp4579
g4
I966207600
sg5
g45
sg7
(lp4580
(S'MyCo.Capital.PL.Expenses.Stationery'
I87
Ntp4581
a(g9
I-87
Ntp4582
asba(itransac
Transaction
p4583
(dp4584
g4
I966294000
sg5
g45
sg7
(lp4585
(S'MyCo.Capital.PL.Expenses.Stationery'
I84
Ntp4586
a(g9
I-84
Ntp4587
asba(itransac
Transaction
p4588
(dp4589
g4
I966380400
sg5
S'Bill received - Contractor'
p4590
sg7
(lp4591
(S'MyCo.Capital.PL.Expenses.Contractors'
I1500
Ntp4592
a(g32
F262.5
Ntp4593
a(g136
F-1762.5
Ntp4594
asba(itransac
Transaction
p4595
(dp4596
g4
I966466800
sg5
g45
sg7
(lp4597
(S'MyCo.Capital.PL.Expenses.Utilities'
I61
Ntp4598
a(g9
I-61
Ntp4599
asba(itransac
Transaction
p4600
(dp4601
g4
I966639600
sg5
S'Bill paid - Contractor'
p4602
sg7
(lp4603
(g136
F1762.5
Ntp4604
a(g9
F-1762.5
Ntp4605
asba(itransac
Transaction
p4606
(dp4607
g4
I966985200
sg5
S'Bill received - Contractor'
p4608
sg7
(lp4609
(S'MyCo.Capital.PL.Expenses.Contractors'
I1500
Ntp4610
a(g32
F262.5
Ntp4611
a(g136
F-1762.5
Ntp4612
asba(itransac
Transaction
p4613
(dp4614
g4
I967071600
sg5
g45
sg7
(lp4615
(S'MyCo.Capital.PL.Expenses.Rent'
I42
Ntp4616
a(g9
I-42
Ntp4617
asba(itransac
Transaction
p4618
(dp4619
g4
I967071600
sg5
g45
sg7
(lp4620
(S'MyCo.Capital.PL.Expenses.Stationery'
I82
Ntp4621
a(g9
I-82
Ntp4622
asba(itransac
Transaction
p4623
(dp4624
g4
I967089600
sg5
S'Salary for Roger'
p4625
sg7
(lp4626
(S'MyCo.Capital.PL.Expenses.Wages'
I3000
Ntp4627
a(g9
I-3000
Ntp4628
asba(itransac
Transaction
p4629
(dp4630
g4
I967093200
sg5
S'Salary for Simon'
p4631
sg7
(lp4632
(S'MyCo.Capital.PL.Expenses.Wages'
I2000
Ntp4633
a(g9
I-2000
Ntp4634
asba(itransac
Transaction
p4635
(dp4636
g4
I967093200
sg5
S'Salary for Tim'
p4637
sg7
(lp4638
(S'MyCo.Capital.PL.Expenses.Wages'
I1500
Ntp4639
a(g9
I-1500
Ntp4640
asba(itransac
Transaction
p4641
(dp4642
g4
I967100400
sg5
S'Salary for Andy'
p4643
sg7
(lp4644
(S'MyCo.Capital.PL.Expenses.Wages'
I3000
Ntp4645
a(g9
I-3000
Ntp4646
asba(itransac
Transaction
p4647
(dp4648
g4
I967114800
sg5
S'Salary for Richard'
p4649
sg7
(lp4650
(S'MyCo.Capital.PL.Expenses.Wages'
I3000
Ntp4651
a(g9
I-3000
Ntp4652
asba(itransac
Transaction
p4653
(dp4654
g4
I967158000
sg5
g45
sg7
(lp4655
(S'MyCo.Capital.PL.Expenses.Travel'
I23
Ntp4656
a(g9
I-23
Ntp4657
asba(itransac
Transaction
p4658
(dp4659
g4
I967244400
sg5
S'Bill paid - Contractor'
p4660
sg7
(lp4661
(g136
F1762.5
Ntp4662
a(g9
F-1762.5
Ntp4663
asba(itransac
Transaction
p4664
(dp4665
g4
I967244400
sg5
g45
sg7
(lp4666
(S'MyCo.Capital.PL.Expenses.Rent'
I19
Ntp4667
a(g9
I-19
Ntp4668
asba(itransac
Transaction
p4669
(dp4670
g4
I967417200
sg5
g45
sg7
(lp4671
(S'MyCo.Capital.PL.Expenses.Rent'
I99
Ntp4672
a(g9
I-99
Ntp4673
asba(itransac
Transaction
p4674
(dp4675
g4
I967417200
sg5
g45
sg7
(lp4676
(S'MyCo.Capital.PL.Expenses.Rent'
I28
Ntp4677
a(g9
I-28
Ntp4678
asba(itransac
Transaction
p4679
(dp4680
g4
I967590000
sg5
S'Bill received - Contractor'
p4681
sg7
(lp4682
(S'MyCo.Capital.PL.Expenses.Contractors'
I1500
Ntp4683
a(g32
F262.5
Ntp4684
a(g136
F-1762.5
Ntp4685
asba(itransac
Transaction
p4686
(dp4687
g4
I967590000
sg5
g45
sg7
(lp4688
(S'MyCo.Capital.PL.Expenses.Rent'
I64
Ntp4689
a(g9
I-64
Ntp4690
asba(itransac
Transaction
p4691
(dp4692
g4
I967676400
sg5
g45
sg7
(lp4693
(S'MyCo.Capital.PL.Expenses.Rent'
I65
Ntp4694
a(g9
I-65
Ntp4695
asba(itransac
Transaction
p4696
(dp4697
g4
I967762800
sg5
g45
sg7
(lp4698
(S'MyCo.Capital.PL.Expenses.Stationery'
I7
Ntp4699
a(g9
I-7
Ntp4700
asba(itransac
Transaction
p4701
(dp4702
g4
I967762800
sg5
g45
sg7
(lp4703
(S'MyCo.Capital.PL.Expenses.Labour'
I2
Ntp4704
a(g9
I-2
Ntp4705
asba(itransac
Transaction
p4706
(dp4707
g4
I967762800
sg5
g45
sg7
(lp4708
(S'MyCo.Capital.PL.Expenses.Stationery'
I70
Ntp4709
a(g9
I-70
Ntp4710
asba(itransac
Transaction
p4711
(dp4712
g4
I967849200
sg5
S'Bill paid - Contractor'
p4713
sg7
(lp4714
(g136
F1762.5
Ntp4715
a(g9
F-1762.5
Ntp4716
asba(itransac
Transaction
p4717
(dp4718
g4
I967867200
sg5
S'Cash Sale - Product Sales for month'
p4719
sg7
(lp4720
(S'MyCo.Capital.PL.Income.Software'
F-42796.75
Ntp4721
a(g32
F-7489.4312499999996
Ntp4722
a(g9
F50286.181250000001
Ntp4723
asba(itransac
Transaction
p4724
(dp4725
g4
I967950000
sg5
g15
sg7
(lp4726
(S'MyCo.Capital.PL.Expenses.Rent'
I1500
Ntp4727
a(g18
I-1500
Ntp4728
asba(itransac
Transaction
p4729
(dp4730
g4
I967950000
sg5
g28
sg7
(lp4731
(g30
F589
Ntp4732
a(g32
F103.07499999999999
Ntp4733
a(g9
F-692.07500000000005
Ntp4734
asba(itransac
Transaction
p4735
(dp4736
g4
I967950000
sg5
g37
sg7
(lp4737
(g39
F1200
Ntp4738
a(g32
F210
Ntp4739
a(g9
F-1410
Ntp4740
asba(itransac
Transaction
p4741
(dp4742
g4
I967953600
sg5
g444
sg7
(lp4743
(g9
F-461.44999999999999
Ntp4744
a(g232
F439.03999999999996
Ntp4745
a(g448
F22.41
Ntp4746
asba(itransac
Transaction
p4747
(dp4748
g4
I968194800
sg5
S'Bill received - Contractor'
p4749
sg7
(lp4750
(S'MyCo.Capital.PL.Expenses.Contractors'
I1500
Ntp4751
a(g32
F262.5
Ntp4752
a(g136
F-1762.5
Ntp4753
asba(itransac
Transaction
p4754
(dp4755
g4
I968281200
sg5
g45
sg7
(lp4756
(S'MyCo.Capital.PL.Expenses.Travel'
I100
Ntp4757
a(g9
I-100
Ntp4758
asba(itransac
Transaction
p4759
(dp4760
g4
I968367600
sg5
g45
sg7
(lp4761
(S'MyCo.Capital.PL.Expenses.Labour'
I62
Ntp4762
a(g9
I-62
Ntp4763
asba(itransac
Transaction
p4764
(dp4765
g4
I968382000
sg5
S'Bill raised - Consulting to 2-Sep-2000 4: 0: 0'
p4766
sg7
(lp4767
(S'MyCo.Capital.PL.Income.Consulting'
I-21600
Ntp4768
a(g32
F-3779.9999999999995
Ntp4769
a(g256
F25380
Ntp4770
asba(itransac
Transaction
p4771
(dp4772
g4
I968454000
sg5
S'Bill paid - Contractor'
p4773
sg7
(lp4774
(g136
F1762.5
Ntp4775
a(g9
F-1762.5
Ntp4776
asba(itransac
Transaction
p4777
(dp4778
g4
I968454000
sg5
g45
sg7
(lp4779
(S'MyCo.Capital.PL.Expenses.Stationery'
I11
Ntp4780
a(g9
I-11
Ntp4781
asba(itransac
Transaction
p4782
(dp4783
g4
I968540400
sg5
g45
sg7
(lp4784
(S'MyCo.Capital.PL.Expenses.Rent'
I57
Ntp4785
a(g9
I-57
Ntp4786
asba(itransac
Transaction
p4787
(dp4788
g4
I968540400
sg5
g45
sg7
(lp4789
(S'MyCo.Capital.PL.Expenses.Rent'
I57
Ntp4790
a(g9
I-57
Ntp4791
asba(itransac
Transaction
p4792
(dp4793
g4
I968626800
sg5
g45
sg7
(lp4794
(S'MyCo.Capital.PL.Expenses.Labour'
I67
Ntp4795
a(g9
I-67
Ntp4796
asba(itransac
Transaction
p4797
(dp4798
g4
I968731200
sg5
S'Payment received - Consulting to 2-Aug-2000 5: 0: 0'
p4799
sg7
(lp4800
(g256
F-25380
Ntp4801
a(g9
F25380
Ntp4802
asba(itransac
Transaction
p4803
(dp4804
g4
I968799600
sg5
S'Bill received - Contractor'
p4805
sg7
(lp4806
(S'MyCo.Capital.PL.Expenses.Contractors'
I1500
Ntp4807
a(g32
F262.5
Ntp4808
a(g136
F-1762.5
Ntp4809
asba(itransac
Transaction
p4810
(dp4811
g4
I968799600
sg5
g45
sg7
(lp4812
(S'MyCo.Capital.PL.Expenses.Labour'
I64
Ntp4813
a(g9
I-64
Ntp4814
asba(itransac
Transaction
p4815
(dp4816
g4
I968799600
sg5
g45
sg7
(lp4817
(S'MyCo.Capital.PL.Expenses.Stationery'
I73
Ntp4818
a(g9
I-73
Ntp4819
asba(itransac
Transaction
p4820
(dp4821
g4
I969058800
sg5
S'Bill paid - Contractor'
p4822
sg7
(lp4823
(g136
F1762.5
Ntp4824
a(g9
F-1762.5
Ntp4825
asba(itransac
Transaction
p4826
(dp4827
g4
I969145200
sg5
g45
sg7
(lp4828
(S'MyCo.Capital.PL.Expenses.Rent'
I71
Ntp4829
a(g9
I-71
Ntp4830
asba(itransac
Transaction
p4831
(dp4832
g4
I969404400
sg5
S'Bill received - Contractor'
p4833
sg7
(lp4834
(S'MyCo.Capital.PL.Expenses.Contractors'
I1500
Ntp4835
a(g32
F262.5
Ntp4836
a(g136
F-1762.5
Ntp4837
asba(itransac
Transaction
p4838
(dp4839
g4
I969490800
sg5
g45
sg7
(lp4840
(S'MyCo.Capital.PL.Expenses.Stationery'
I47
Ntp4841
a(g9
I-47
Ntp4842
asba(itransac
Transaction
p4843
(dp4844
g4
I969663600
sg5
S'Bill paid - Contractor'
p4845
sg7
(lp4846
(g136
F1762.5
Ntp4847
a(g9
F-1762.5
Ntp4848
asba(itransac
Transaction
p4849
(dp4850
g4
I969663600
sg5
g45
sg7
(lp4851
(S'MyCo.Capital.PL.Expenses.Rent'
I37
Ntp4852
a(g9
I-37
Ntp4853
asba(itransac
Transaction
p4854
(dp4855
g4
I969750000
sg5
g45
sg7
(lp4856
(S'MyCo.Capital.PL.Expenses.Labour'
I69
Ntp4857
a(g9
I-69
Ntp4858
asba(itransac
Transaction
p4859
(dp4860
g4
I969750000
sg5
g45
sg7
(lp4861
(S'MyCo.Capital.PL.Expenses.Rent'
I89
Ntp4862
a(g9
I-89
Ntp4863
asba(itransac
Transaction
p4864
(dp4865
g4
I969764400
sg5
S'Salary for Roger'
p4866
sg7
(lp4867
(S'MyCo.Capital.PL.Expenses.Wages'
I3000
Ntp4868
a(g9
I-3000
Ntp4869
asba(itransac
Transaction
p4870
(dp4871
g4
I969768000
sg5
S'Salary for Simon'
p4872
sg7
(lp4873
(S'MyCo.Capital.PL.Expenses.Wages'
I2000
Ntp4874
a(g9
I-2000
Ntp4875
asba(itransac
Transaction
p4876
(dp4877
g4
I969768000
sg5
S'Salary for Tim'
p4878
sg7
(lp4879
(S'MyCo.Capital.PL.Expenses.Wages'
I1500
Ntp4880
a(g9
I-1500
Ntp4881
asba(itransac
Transaction
p4882
(dp4883
g4
I969775200
sg5
S'Salary for Andy'
p4884
sg7
(lp4885
(S'MyCo.Capital.PL.Expenses.Wages'
I3000
Ntp4886
a(g9
I-3000
Ntp4887
asba(itransac
Transaction
p4888
(dp4889
g4
I969789600
sg5
S'Salary for Richard'
p4890
sg7
(lp4891
(S'MyCo.Capital.PL.Expenses.Wages'
I3000
Ntp4892
a(g9
I-3000
Ntp4893
asba(itransac
Transaction
p4894
(dp4895
g4
I969836400
sg5
g45
sg7
(lp4896
(S'MyCo.Capital.PL.Expenses.Rent'
I100
Ntp4897
a(g9
I-100
Ntp4898
asba(itransac
Transaction
p4899
(dp4900
g4
I969922800
sg5
g45
sg7
(lp4901
(S'MyCo.Capital.PL.Expenses.Rent'
I30
Ntp4902
a(g9
I-30
Ntp4903
asba(itransac
Transaction
p4904
(dp4905
g4
I969922800
sg5
g45
sg7
(lp4906
(S'MyCo.Capital.PL.Expenses.Rent'
I39
Ntp4907
a(g9
I-39
Ntp4908
asba(itransac
Transaction
p4909
(dp4910
g4
I970009200
sg5
S'Bill received - Contractor'
p4911
sg7
(lp4912
(S'MyCo.Capital.PL.Expenses.Contractors'
I1500
Ntp4913
a(g32
F262.5
Ntp4914
a(g136
F-1762.5
Ntp4915
asba(itransac
Transaction
p4916
(dp4917
g4
I970009200
sg5
g45
sg7
(lp4918
(S'MyCo.Capital.PL.Expenses.Utilities'
I29
Ntp4919
a(g9
I-29
Ntp4920
asba(itransac
Transaction
p4921
(dp4922
g4
I970009200
sg5
g45
sg7
(lp4923
(S'MyCo.Capital.PL.Expenses.Stationery'
I54
Ntp4924
a(g9
I-54
Ntp4925
asba(itransac
Transaction
p4926
(dp4927
g4
I970095600
sg5
g45
sg7
(lp4928
(S'MyCo.Capital.PL.Expenses.Stationery'
I14
Ntp4929
a(g9
I-14
Ntp4930
asba(itransac
Transaction
p4931
(dp4932
g4
I970268400
sg5
S'Bill paid - Contractor'
p4933
sg7
(lp4934
(g136
F1762.5
Ntp4935
a(g9
F-1762.5
Ntp4936
asba(itransac
Transaction
p4937
(dp4938
g4
I970416000
sg5
g22
sg7
(lp4939
(g18
I4500
Ntp4940
a(g9
I-4500
Ntp4941
asba(itransac
Transaction
p4942
(dp4943
g4
I970441200
sg5
g45
sg7
(lp4944
(S'MyCo.Capital.PL.Expenses.Utilities'
I97
Ntp4945
a(g9
I-97
Ntp4946
asba(itransac
Transaction
p4947
(dp4948
g4
I970455600
sg5
S'Cash Sale - Product Sales for month'
p4949
sg7
(lp4950
(S'MyCo.Capital.PL.Income.Software'
F-47076.43
Ntp4951
a(g32
F-8238.3752499999991
Ntp4952
a(g9
F55314.805249999998
Ntp4953
asba(itransac
Transaction
p4954
(dp4955
g4
I970527600
sg5
g45
sg7
(lp4956
(S'MyCo.Capital.PL.Expenses.Stationery'
I91
Ntp4957
a(g9
I-91
Ntp4958
asba(itransac
Transaction
p4959
(dp4960
g4
I970538400
sg5
g15
sg7
(lp4961
(S'MyCo.Capital.PL.Expenses.Rent'
I1500
Ntp4962
a(g18
I-1500
Ntp4963
asba(itransac
Transaction
p4964
(dp4965
g4
I970538400
sg5
g28
sg7
(lp4966
(g30
F479
Ntp4967
a(g32
F83.824999999999989
Ntp4968
a(g9
F-562.82500000000005
Ntp4969
asba(itransac
Transaction
p4970
(dp4971
g4
I970538400
sg5
g37
sg7
(lp4972
(g39
F1200
Ntp4973
a(g32
F210
Ntp4974
a(g9
F-1410
Ntp4975
asba(itransac
Transaction
p4976
(dp4977
g4
I970542000
sg5
g444
sg7
(lp4978
(g9
F-461.44999999999999
Ntp4979
a(g232
F442.69999999999999
Ntp4980
a(g448
F18.75
Ntp4981
asba(itransac
Transaction
p4982
(dp4983
g4
I970614000
sg5
S'Bill received - Contractor'
p4984
sg7
(lp4985
(S'MyCo.Capital.PL.Expenses.Contractors'
I1500
Ntp4986
a(g32
F262.5
Ntp4987
a(g136
F-1762.5
Ntp4988
asba(itransac
Transaction
p4989
(dp4990
g4
I970873200
sg5
S'Bill paid - Contractor'
p4991
sg7
(lp4992
(g136
F1762.5
Ntp4993
a(g9
F-1762.5
Ntp4994
asba(itransac
Transaction
p4995
(dp4996
g4
I970959600
sg5
g45
sg7
(lp4997
(S'MyCo.Capital.PL.Expenses.Travel'
I24
Ntp4998
a(g9
I-24
Ntp4999
asba(itransac
Transaction
p5000
(dp5001
g4
I970970400
sg5
S'Bill raised - Consulting to 2-Oct-2000 3: 0: 0'
p5002
sg7
(lp5003
(S'MyCo.Capital.PL.Income.Consulting'
I-21600
Ntp5004
a(g32
F-3779.9999999999995
Ntp5005
a(g256
F25380
Ntp5006
asba(itransac
Transaction
p5007
(dp5008
g4
I971218800
sg5
S'Bill received - Contractor'
p5009
sg7
(lp5010
(S'MyCo.Capital.PL.Expenses.Contractors'
I1500
Ntp5011
a(g32
F262.5
Ntp5012
a(g136
F-1762.5
Ntp5013
asba(itransac
Transaction
p5014
(dp5015
g4
I971305200
sg5
g45
sg7
(lp5016
(S'MyCo.Capital.PL.Expenses.Travel'
I2
Ntp5017
a(g9
I-2
Ntp5018
asba(itransac
Transaction
p5019
(dp5020
g4
I971391600
sg5
g45
sg7
(lp5021
(S'MyCo.Capital.PL.Expenses.Utilities'
I70
Ntp5022
a(g9
I-70
Ntp5023
asba(itransac
Transaction
p5024
(dp5025
g4
I971406000
sg5
S'Payment received - Consulting to 2-Sep-2000 4: 0: 0'
p5026
sg7
(lp5027
(g256
F-25380
Ntp5028
a(g9
F25380
Ntp5029
asba(itransac
Transaction
p5030
(dp5031
g4
I971478000
sg5
S'Bill paid - Contractor'
p5032
sg7
(lp5033
(g136
F1762.5
Ntp5034
a(g9
F-1762.5
Ntp5035
asba(itransac
Transaction
p5036
(dp5037
g4
I971478000
sg5
g45
sg7
(lp5038
(S'MyCo.Capital.PL.Expenses.Travel'
I27
Ntp5039
a(g9
I-27
Ntp5040
asba(itransac
Transaction
p5041
(dp5042
g4
I971650800
sg5
g45
sg7
(lp5043
(S'MyCo.Capital.PL.Expenses.Rent'
I34
Ntp5044
a(g9
I-34
Ntp5045
asba(itransac
Transaction
p5046
(dp5047
g4
I971823600
sg5
S'Bill received - Contractor'
p5048
sg7
(lp5049
(S'MyCo.Capital.PL.Expenses.Contractors'
I1500
Ntp5050
a(g32
F262.5
Ntp5051
a(g136
F-1762.5
Ntp5052
asba(itransac
Transaction
p5053
(dp5054
g4
I971823600
sg5
g45
sg7
(lp5055
(S'MyCo.Capital.PL.Expenses.Travel'
I15
Ntp5056
a(g9
I-15
Ntp5057
asba(itransac
Transaction
p5058
(dp5059
g4
I971823600
sg5
g45
sg7
(lp5060
(S'MyCo.Capital.PL.Expenses.Labour'
I13
Ntp5061
a(g9
I-13
Ntp5062
asba(itransac
Transaction
p5063
(dp5064
g4
I971910000
sg5
g45
sg7
(lp5065
(S'MyCo.Capital.PL.Expenses.Utilities'
I89
Ntp5066
a(g9
I-89
Ntp5067
asba(itransac
Transaction
p5068
(dp5069
g4
I971996400
sg5
g45
sg7
(lp5070
(S'MyCo.Capital.PL.Expenses.Utilities'
I90
Ntp5071
a(g9
I-90
Ntp5072
asba(itransac
Transaction
p5073
(dp5074
g4
I972082800
sg5
S'Bill paid - Contractor'
p5075
sg7
(lp5076
(g136
F1762.5
Ntp5077
a(g9
F-1762.5
Ntp5078
asba(itransac
Transaction
p5079
(dp5080
g4
I972342000
sg5
g45
sg7
(lp5081
(S'MyCo.Capital.PL.Expenses.Labour'
I86
Ntp5082
a(g9
I-86
Ntp5083
asba(itransac
Transaction
p5084
(dp5085
g4
I972352800
sg5
S'Salary for Roger'
p5086
sg7
(lp5087
(S'MyCo.Capital.PL.Expenses.Wages'
I3000
Ntp5088
a(g9
I-3000
Ntp5089
asba(itransac
Transaction
p5090
(dp5091
g4
I972356400
sg5
S'Salary for Simon'
p5092
sg7
(lp5093
(S'MyCo.Capital.PL.Expenses.Wages'
I2000
Ntp5094
a(g9
I-2000
Ntp5095
asba(itransac
Transaction
p5096
(dp5097
g4
I972356400
sg5
S'Salary for Tim'
p5098
sg7
(lp5099
(S'MyCo.Capital.PL.Expenses.Wages'
I1500
Ntp5100
a(g9
I-1500
Ntp5101
asba(itransac
Transaction
p5102
(dp5103
g4
I972363600
sg5
S'Salary for Andy'
p5104
sg7
(lp5105
(S'MyCo.Capital.PL.Expenses.Wages'
I3000
Ntp5106
a(g9
I-3000
Ntp5107
asba(itransac
Transaction
p5108
(dp5109
g4
I972378000
sg5
S'Salary for Richard'
p5110
sg7
(lp5111
(S'MyCo.Capital.PL.Expenses.Wages'
I3000
Ntp5112
a(g9
I-3000
Ntp5113
asba(itransac
Transaction
p5114
(dp5115
g4
I972428400
sg5
S'Bill received - Contractor'
p5116
sg7
(lp5117
(S'MyCo.Capital.PL.Expenses.Contractors'
I1500
Ntp5118
a(g32
F262.5
Ntp5119
a(g136
F-1762.5
Ntp5120
asba(itransac
Transaction
p5121
(dp5122
g4
I972601200
sg5
g45
sg7
(lp5123
(S'MyCo.Capital.PL.Expenses.Labour'
I39
Ntp5124
a(g9
I-39
Ntp5125
asba(itransac
Transaction
p5126
(dp5127
g4
I972601200
sg5
g45
sg7
(lp5128
(S'MyCo.Capital.PL.Expenses.Labour'
I59
Ntp5129
a(g9
I-59
Ntp5130
asba(itransac
Transaction
p5131
(dp5132
g4
I972687600
sg5
S'Bill paid - Contractor'
p5133
sg7
(lp5134
(g136
F1762.5
Ntp5135
a(g9
F-1762.5
Ntp5136
asba(itransac
Transaction
p5137
(dp5138
g4
I972860400
sg5
g45
sg7
(lp5139
(S'MyCo.Capital.PL.Expenses.Labour'
I83
Ntp5140
a(g9
I-83
Ntp5141
asba(itransac
Transaction
p5142
(dp5143
g4
I972860400
sg5
g45
sg7
(lp5144
(S'MyCo.Capital.PL.Expenses.Rent'
I57
Ntp5145
a(g9
I-57
Ntp5146
asba(itransac
Transaction
p5147
(dp5148
g4
I973033200
sg5
S'Bill received - Contractor'
p5149
sg7
(lp5150
(S'MyCo.Capital.PL.Expenses.Contractors'
I1500
Ntp5151
a(g32
F262.5
Ntp5152
a(g136
F-1762.5
Ntp5153
asba(itransac
Transaction
p5154
(dp5155
g4
I973033200
sg5
g45
sg7
(lp5156
(S'MyCo.Capital.PL.Expenses.Utilities'
I64
Ntp5157
a(g9
I-64
Ntp5158
asba(itransac
Transaction
p5159
(dp5160
g4
I973130400
sg5
S'Cash Sale - Product Sales for month'
p5161
sg7
(lp5162
(S'MyCo.Capital.PL.Income.Software'
F-51784.07
Ntp5163
a(g32
F-9062.2122499999987
Ntp5164
a(g9
F60846.282249999997
Ntp5165
asba(itransac
Transaction
p5166
(dp5167
g4
I973206000
sg5
g45
sg7
(lp5168
(S'MyCo.Capital.PL.Expenses.Stationery'
I70
Ntp5169
a(g9
I-70
Ntp5170
asba(itransac
Transaction
p5171
(dp5172
g4
I973213200
sg5
g15
sg7
(lp5173
(S'MyCo.Capital.PL.Expenses.Rent'
I1500
Ntp5174
a(g18
I-1500
Ntp5175
asba(itransac
Transaction
p5176
(dp5177
g4
I973213200
sg5
g28
sg7
(lp5178
(g30
F382
Ntp5179
a(g32
F66.849999999999994
Ntp5180
a(g9
F-448.85000000000002
Ntp5181
asba(itransac
Transaction
p5182
(dp5183
g4
I973213200
sg5
g37
sg7
(lp5184
(g39
F1200
Ntp5185
a(g32
F210
Ntp5186
a(g9
F-1410
Ntp5187
asba(itransac
Transaction
p5188
(dp5189
g4
I973216800
sg5
g444
sg7
(lp5190
(g9
F-461.44999999999999
Ntp5191
a(g232
F446.38999999999999
Ntp5192
a(g448
F15.06
Ntp5193
asba(itransac
Transaction
p5194
(dp5195
g4
I973292400
sg5
S'Bill paid - Contractor'
p5196
sg7
(lp5197
(g136
F1762.5
Ntp5198
a(g9
F-1762.5
Ntp5199
asba(itransac
Transaction
p5200
(dp5201
g4
I973292400
sg5
g45
sg7
(lp5202
(S'MyCo.Capital.PL.Expenses.Utilities'
I94
Ntp5203
a(g9
I-94
Ntp5204
asba(itransac
Transaction
p5205
(dp5206
g4
I973378800
sg5
g45
sg7
(lp5207
(S'MyCo.Capital.PL.Expenses.Labour'
I53
Ntp5208
a(g9
I-53
Ntp5209
asba(itransac
Transaction
p5210
(dp5211
g4
I973378800
sg5
g45
sg7
(lp5212
(S'MyCo.Capital.PL.Expenses.Utilities'
I8
Ntp5213
a(g9
I-8
Ntp5214
asba(itransac
Transaction
p5215
(dp5216
g4
I973378800
sg5
g45
sg7
(lp5217
(S'MyCo.Capital.PL.Expenses.Utilities'
I90
Ntp5218
a(g9
I-90
Ntp5219
asba(itransac
Transaction
p5220
(dp5221
g4
I973551600
sg5
g45
sg7
(lp5222
(S'MyCo.Capital.PL.Expenses.Labour'
I17
Ntp5223
a(g9
I-17
Ntp5224
asba(itransac
Transaction
p5225
(dp5226
g4
I973551600
sg5
g45
sg7
(lp5227
(S'MyCo.Capital.PL.Expenses.Stationery'
I59
Ntp5228
a(g9
I-59
Ntp5229
asba(itransac
Transaction
p5230
(dp5231
g4
I973638000
sg5
S'Bill received - Contractor'
p5232
sg7
(lp5233
(S'MyCo.Capital.PL.Expenses.Contractors'
I1500
Ntp5234
a(g32
F262.5
Ntp5235
a(g136
F-1762.5
Ntp5236
asba(itransac
Transaction
p5237
(dp5238
g4
I973638000
sg5
g45
sg7
(lp5239
(S'MyCo.Capital.PL.Expenses.Utilities'
I87
Ntp5240
a(g9
I-87
Ntp5241
asba(itransac
Transaction
p5242
(dp5243
g4
I973645200
sg5
S'Bill raised - Consulting to 2-Nov-2000 2: 0: 0'
p5244
sg7
(lp5245
(S'MyCo.Capital.PL.Income.Consulting'
I-21600
Ntp5246
a(g32
F-3779.9999999999995
Ntp5247
a(g256
F25380
Ntp5248
asba(itransac
Transaction
p5249
(dp5250
g4
I973810800
sg5
g45
sg7
(lp5251
(S'MyCo.Capital.PL.Expenses.Travel'
I59
Ntp5252
a(g9
I-59
Ntp5253
asba(itransac
Transaction
p5254
(dp5255
g4
I973897200
sg5
S'Bill paid - Contractor'
p5256
sg7
(lp5257
(g136
F1762.5
Ntp5258
a(g9
F-1762.5
Ntp5259
asba(itransac
Transaction
p5260
(dp5261
g4
I973983600
sg5
g45
sg7
(lp5262
(S'MyCo.Capital.PL.Expenses.Travel'
I74
Ntp5263
a(g9
I-74
Ntp5264
asba(itransac
Transaction
p5265
(dp5266
g4
I973994400
sg5
S'Payment received - Consulting to 2-Oct-2000 3: 0: 0'
p5267
sg7
(lp5268
(g256
F-25380
Ntp5269
a(g9
F25380
Ntp5270
asba(itransac
Transaction
p5271
(dp5272
g4
I974242800
sg5
S'Bill received - Contractor'
p5273
sg7
(lp5274
(S'MyCo.Capital.PL.Expenses.Contractors'
I1500
Ntp5275
a(g32
F262.5
Ntp5276
a(g136
F-1762.5
Ntp5277
asba(itransac
Transaction
p5278
(dp5279
g4
I974502000
sg5
S'Bill paid - Contractor'
p5280
sg7
(lp5281
(g136
F1762.5
Ntp5282
a(g9
F-1762.5
Ntp5283
asba(itransac
Transaction
p5284
(dp5285
g4
I974588400
sg5
g45
sg7
(lp5286
(S'MyCo.Capital.PL.Expenses.Stationery'
I15
Ntp5287
a(g9
I-15
Ntp5288
asba(itransac
Transaction
p5289
(dp5290
g4
I974847600
sg5
S'Bill received - Contractor'
p5291
sg7
(lp5292
(S'MyCo.Capital.PL.Expenses.Contractors'
I1500
Ntp5293
a(g32
F262.5
Ntp5294
a(g136
F-1762.5
Ntp5295
asba(itransac
Transaction
p5296
(dp5297
g4
I974847600
sg5
g45
sg7
(lp5298
(S'MyCo.Capital.PL.Expenses.Utilities'
I90
Ntp5299
a(g9
I-90
Ntp5300
asba(itransac
Transaction
p5301
(dp5302
g4
I975020400
sg5
g45
sg7
(lp5303
(S'MyCo.Capital.PL.Expenses.Rent'
I31
Ntp5304
a(g9
I-31
Ntp5305
asba(itransac
Transaction
p5306
(dp5307
g4
I975020400
sg5
g45
sg7
(lp5308
(S'MyCo.Capital.PL.Expenses.Travel'
I17
Ntp5309
a(g9
I-17
Ntp5310
asba(itransac
Transaction
p5311
(dp5312
g4
I975020400
sg5
g45
sg7
(lp5313
(S'MyCo.Capital.PL.Expenses.Rent'
I61
Ntp5314
a(g9
I-61
Ntp5315
asba(itransac
Transaction
p5316
(dp5317
g4
I975027600
sg5
S'Salary for Roger'
p5318
sg7
(lp5319
(S'MyCo.Capital.PL.Expenses.Wages'
I3000
Ntp5320
a(g9
I-3000
Ntp5321
asba(itransac
Transaction
p5322
(dp5323
g4
I975031200
sg5
S'Salary for Simon'
p5324
sg7
(lp5325
(S'MyCo.Capital.PL.Expenses.Wages'
I2000
Ntp5326
a(g9
I-2000
Ntp5327
asba(itransac
Transaction
p5328
(dp5329
g4
I975031200
sg5
S'Salary for Tim'
p5330
sg7
(lp5331
(S'MyCo.Capital.PL.Expenses.Wages'
I1500
Ntp5332
a(g9
I-1500
Ntp5333
asba(itransac
Transaction
p5334
(dp5335
g4
I975038400
sg5
S'Salary for Andy'
p5336
sg7
(lp5337
(S'MyCo.Capital.PL.Expenses.Wages'
I3000
Ntp5338
a(g9
I-3000
Ntp5339
asba(itransac
Transaction
p5340
(dp5341
g4
I975052800
sg5
S'Salary for Richard'
p5342
sg7
(lp5343
(S'MyCo.Capital.PL.Expenses.Wages'
I3000
Ntp5344
a(g9
I-3000
Ntp5345
asba(itransac
Transaction
p5346
(dp5347
g4
I975106800
sg5
S'Bill paid - Contractor'
p5348
sg7
(lp5349
(g136
F1762.5
Ntp5350
a(g9
F-1762.5
Ntp5351
asba(itransac
Transaction
p5352
(dp5353
g4
I975193200
sg5
g45
sg7
(lp5354
(S'MyCo.Capital.PL.Expenses.Utilities'
I18
Ntp5355
a(g9
I-18
Ntp5356
asba(itransac
Transaction
p5357
(dp5358
g4
I975452400
sg5
S'Bill received - Contractor'
p5359
sg7
(lp5360
(S'MyCo.Capital.PL.Expenses.Contractors'
I1500
Ntp5361
a(g32
F262.5
Ntp5362
a(g136
F-1762.5
Ntp5363
asba(itransac
Transaction
p5364
(dp5365
g4
I975452400
sg5
g45
sg7
(lp5366
(S'MyCo.Capital.PL.Expenses.Utilities'
I83
Ntp5367
a(g9
I-83
Ntp5368
asba(itransac
Transaction
p5369
(dp5370
g4
I975711600
sg5
S'Bill paid - Contractor'
p5371
sg7
(lp5372
(g136
F1762.5
Ntp5373
a(g9
F-1762.5
Ntp5374
asba(itransac
Transaction
p5375
(dp5376
g4
I975711600
sg5
g45
sg7
(lp5377
(S'MyCo.Capital.PL.Expenses.Utilities'
I29
Ntp5378
a(g9
I-29
Ntp5379
asba(itransac
Transaction
p5380
(dp5381
g4
I975718800
sg5
S'Cash Sale - Product Sales for month'
p5382
sg7
(lp5383
(S'MyCo.Capital.PL.Income.Software'
F-56962.480000000003
Ntp5384
a(g32
F-9968.4339999999993
Ntp5385
a(g9
F66930.914000000004
Ntp5386
asba(itransac
Transaction
p5387
(dp5388
g4
I975798000
sg5
g45
sg7
(lp5389
(S'MyCo.Capital.PL.Expenses.Utilities'
I30
Ntp5390
a(g9
I-30
Ntp5391
asba(itransac
Transaction
p5392
(dp5393
g4
I975801600
sg5
g15
sg7
(lp5394
(S'MyCo.Capital.PL.Expenses.Rent'
I1500
Ntp5395
a(g18
I-1500
Ntp5396
asba(itransac
Transaction
p5397
(dp5398
g4
I975801600
sg5
g28
sg7
(lp5399
(g30
F454
Ntp5400
a(g32
F79.449999999999989
Ntp5401
a(g9
F-533.45000000000005
Ntp5402
asba(itransac
Transaction
p5403
(dp5404
g4
I975801600
sg5
g37
sg7
(lp5405
(g39
F1200
Ntp5406
a(g32
F210
Ntp5407
a(g9
F-1410
Ntp5408
asba(itransac
Transaction
p5409
(dp5410
g4
I975805200
sg5
g444
sg7
(lp5411
(g9
F-461.44999999999999
Ntp5412
a(g232
F450.11000000000001
Ntp5413
a(g448
F11.34
Ntp5414
asba(itransac
Transaction
p5415
(dp5416
g4
I975884400
sg5
g45
sg7
(lp5417
(S'MyCo.Capital.PL.Expenses.Travel'
I64
Ntp5418
a(g9
I-64
Ntp5419
asba(itransac
Transaction
p5420
(dp5421
g4
I976057200
sg5
S'Bill received - Contractor'
p5422
sg7
(lp5423
(S'MyCo.Capital.PL.Expenses.Contractors'
I1500
Ntp5424
a(g32
F262.5
Ntp5425
a(g136
F-1762.5
Ntp5426
asba(itransac
Transaction
p5427
(dp5428
g4
I976057200
sg5
g45
sg7
(lp5429
(S'MyCo.Capital.PL.Expenses.Utilities'
I45
Ntp5430
a(g9
I-45
Ntp5431
asba(itransac
Transaction
p5432
(dp5433
g4
I976230000
sg5
g45
sg7
(lp5434
(S'MyCo.Capital.PL.Expenses.Rent'
I39
Ntp5435
a(g9
I-39
Ntp5436
asba(itransac
Transaction
p5437
(dp5438
g4
I976233600
sg5
S'Bill raised - Consulting to 2-Dec-2000 1: 0: 0'
p5439
sg7
(lp5440
(S'MyCo.Capital.PL.Income.Consulting'
I-21600
Ntp5441
a(g32
F-3779.9999999999995
Ntp5442
a(g256
F25380
Ntp5443
asba(itransac
Transaction
p5444
(dp5445
g4
I976316400
sg5
S'Bill paid - Contractor'
p5446
sg7
(lp5447
(g136
F1762.5
Ntp5448
a(g9
F-1762.5
Ntp5449
asba(itransac
Transaction
p5450
(dp5451
g4
I976402800
sg5
g45
sg7
(lp5452
(S'MyCo.Capital.PL.Expenses.Rent'
I18
Ntp5453
a(g9
I-18
Ntp5454
asba(itransac
Transaction
p5455
(dp5456
g4
I976402800
sg5
g45
sg7
(lp5457
(S'MyCo.Capital.PL.Expenses.Labour'
I19
Ntp5458
a(g9
I-19
Ntp5459
asba(itransac
Transaction
p5460
(dp5461
g4
I976402800
sg5
g45
sg7
(lp5462
(S'MyCo.Capital.PL.Expenses.Rent'
I20
Ntp5463
a(g9
I-20
Ntp5464
asba(itransac
Transaction
p5465
(dp5466
g4
I976489200
sg5
g45
sg7
(lp5467
(S'MyCo.Capital.PL.Expenses.Labour'
I27
Ntp5468
a(g9
I-27
Ntp5469
asba(itransac
Transaction
p5470
(dp5471
g4
I976662000
sg5
S'Bill received - Contractor'
p5472
sg7
(lp5473
(S'MyCo.Capital.PL.Expenses.Contractors'
I1500
Ntp5474
a(g32
F262.5
Ntp5475
a(g136
F-1762.5
Ntp5476
asba(itransac
Transaction
p5477
(dp5478
g4
I976662000
sg5
g45
sg7
(lp5479
(S'MyCo.Capital.PL.Expenses.Stationery'
I56
Ntp5480
a(g9
I-56
Ntp5481
asba(itransac
Transaction
p5482
(dp5483
g4
I976662000
sg5
g45
sg7
(lp5484
(S'MyCo.Capital.PL.Expenses.Rent'
I71
Ntp5485
a(g9
I-71
Ntp5486
asba(itransac
Transaction
p5487
(dp5488
g4
I976662000
sg5
g45
sg7
(lp5489
(S'MyCo.Capital.PL.Expenses.Rent'
I88
Ntp5490
a(g9
I-88
Ntp5491
asba(itransac
Transaction
p5492
(dp5493
g4
I976669200
sg5
S'Payment received - Consulting to 2-Nov-2000 2: 0: 0'
p5494
sg7
(lp5495
(g256
F-25380
Ntp5496
a(g9
F25380
Ntp5497
asba(itransac
Transaction
p5498
(dp5499
g4
I976921200
sg5
S'Bill paid - Contractor'
p5500
sg7
(lp5501
(g136
F1762.5
Ntp5502
a(g9
F-1762.5
Ntp5503
asba(itransac
Transaction
p5504
(dp5505
g4
I976921200
sg5
g45
sg7
(lp5506
(S'MyCo.Capital.PL.Expenses.Rent'
I31
Ntp5507
a(g9
I-31
Ntp5508
asba(itransac
Transaction
p5509
(dp5510
g4
I977180400
sg5
g45
sg7
(lp5511
(S'MyCo.Capital.PL.Expenses.Rent'
I23
Ntp5512
a(g9
I-23
Ntp5513
asba(itransac
Transaction
p5514
(dp5515
g4
I977180400
sg5
g45
sg7
(lp5516
(S'MyCo.Capital.PL.Expenses.Labour'
I6
Ntp5517
a(g9
I-6
Ntp5518
asba(itransac
Transaction
p5519
(dp5520
g4
I977266800
sg5
S'Bill received - Contractor'
p5521
sg7
(lp5522
(S'MyCo.Capital.PL.Expenses.Contractors'
I1500
Ntp5523
a(g32
F262.5
Ntp5524
a(g136
F-1762.5
Ntp5525
asba(itransac
Transaction
p5526
(dp5527
g4
I977439600
sg5
g45
sg7
(lp5528
(S'MyCo.Capital.PL.Expenses.Rent'
I9
Ntp5529
a(g9
I-9
Ntp5530
asba(itransac
Transaction
p5531
(dp5532
g4
I977526000
sg5
S'Bill paid - Contractor'
p5533
sg7
(lp5534
(g136
F1762.5
Ntp5535
a(g9
F-1762.5
Ntp5536
asba(itransac
Transaction
p5537
(dp5538
g4
I977612400
sg5
g45
sg7
(lp5539
(S'MyCo.Capital.PL.Expenses.Rent'
I60
Ntp5540
a(g9
I-60
Ntp5541
asba(itransac
Transaction
p5542
(dp5543
g4
I977616000
sg5
S'Salary for Roger'
p5544
sg7
(lp5545
(S'MyCo.Capital.PL.Expenses.Wages'
I3000
Ntp5546
a(g9
I-3000
Ntp5547
asba(itransac
Transaction
p5548
(dp5549
g4
I977619600
sg5
S'Salary for Simon'
p5550
sg7
(lp5551
(S'MyCo.Capital.PL.Expenses.Wages'
I2000
Ntp5552
a(g9
I-2000
Ntp5553
asba(itransac
Transaction
p5554
(dp5555
g4
I977619600
sg5
S'Salary for Tim'
p5556
sg7
(lp5557
(S'MyCo.Capital.PL.Expenses.Wages'
I1500
Ntp5558
a(g9
I-1500
Ntp5559
asba(itransac
Transaction
p5560
(dp5561
g4
I977626800
sg5
S'Salary for Andy'
p5562
sg7
(lp5563
(S'MyCo.Capital.PL.Expenses.Wages'
I3000
Ntp5564
a(g9
I-3000
Ntp5565
asba(itransac
Transaction
p5566
(dp5567
g4
I977641200
sg5
S'Salary for Richard'
p5568
sg7
(lp5569
(S'MyCo.Capital.PL.Expenses.Wages'
I3000
Ntp5570
a(g9
I-3000
Ntp5571
asba(itransac
Transaction
p5572
(dp5573
g4
I977698800
sg5
g45
sg7
(lp5574
(S'MyCo.Capital.PL.Expenses.Labour'
I53
Ntp5575
a(g9
I-53
Ntp5576
asba(itransac
Transaction
p5577
(dp5578
g4
I977871600
sg5
S'Bill received - Contractor'
p5579
sg7
(lp5580
(S'MyCo.Capital.PL.Expenses.Contractors'
I1500
Ntp5581
a(g32
F262.5
Ntp5582
a(g136
F-1762.5
Ntp5583
asba(itransac
Transaction
p5584
(dp5585
g4
I977871600
sg5
g45
sg7
(lp5586
(S'MyCo.Capital.PL.Expenses.Travel'
I91
Ntp5587
a(g9
I-91
Ntp5588
asba(itransac
Transaction
p5589
(dp5590
g4
I978130800
sg5
S'Bill paid - Contractor'
p5591
sg7
(lp5592
(g136
F1762.5
Ntp5593
a(g9
F-1762.5
Ntp5594
asba(itransac
Transaction
p5595
(dp5596
g4
I978393600
sg5
S'Cash Sale - Product Sales for month'
p5597
sg7
(lp5598
(S'MyCo.Capital.PL.Income.Software'
F-62658.722500000003
Ntp5599
a(g32
F-10965.276437500001
Ntp5600
a(g9
F73623.9989375
Ntp5601
asba(itransac
Transaction
p5602
(dp5603
g4
I978480000
sg5
g444
sg7
(lp5604
(g9
F-461.44999999999999
Ntp5605
a(g232
F453.86000000000001
Ntp5606
a(g448
F7.5899999999999999
Ntp5607
asba(itransac
Transaction
p5608
(dp5609
g4
I978735600
sg5
S'Bill paid - Contractor'
p5610
sg7
(lp5611
(g136
F1762.5
Ntp5612
a(g9
F-1762.5
Ntp5613
asba(itransac
Transaction
p5614
(dp5615
g4
I978908400
sg5
S'Bill raised - Consulting to 2-Jan-2001'
p5616
sg7
(lp5617
(S'MyCo.Capital.PL.Income.Consulting'
I-21600
Ntp5618
a(g32
F-3779.9999999999995
Ntp5619
a(g256
F25380
Ntp5620
asba(itransac
Transaction
p5621
(dp5622
g4
I979257600
sg5
S'Payment received - Consulting to 2-Dec-2000 1: 0: 0'
p5623
sg7
(lp5624
(g256
F-25380
Ntp5625
a(g9
F25380
Ntp5626
asba(itransac
Transaction
p5627
(dp5628
g4
I981154800
sg5
S'Final loan repayment'
p5629
sg7
(lp5630
(g9
F-457.49999999999795
Ntp5631
a(g232
F457.49999999999795
Ntp5632
asba(itransac
Transaction
p5633
(dp5634
g4
I981932400
sg5
S'Payment received - Consulting to 2-Jan-2001'
p5635
sg7
(lp5636
(g256
F-25380
Ntp5637
a(g9
F25380
Ntp5638
asba.